ARM GAS  /tmp/ccY1Uct9.s 			page 1


   1              		.cpu cortex-m0
   2              		.arch armv6s-m
   3              		.fpu softvfp
   4              		.eabi_attribute 20, 1
   5              		.eabi_attribute 21, 1
   6              		.eabi_attribute 23, 3
   7              		.eabi_attribute 24, 1
   8              		.eabi_attribute 25, 1
   9              		.eabi_attribute 26, 1
  10              		.eabi_attribute 30, 1
  11              		.eabi_attribute 34, 0
  12              		.eabi_attribute 18, 4
  13              		.file	"stm32f0xx_hal_gpio.c"
  14              		.text
  15              	.Ltext0:
  16              		.cfi_sections	.debug_frame
  17              		.file 1 "Drivers/STM32F0xx_HAL_Driver/Src/stm32f0xx_hal_gpio.c"
  18              		.section	.text.HAL_GPIO_Init,"ax",%progbits
  19              		.align	1
  20              		.global	HAL_GPIO_Init
  21              		.syntax unified
  22              		.code	16
  23              		.thumb_func
  25              	HAL_GPIO_Init:
  26              	.LVL0:
  27              	.LFB40:
   1:Drivers/STM32F0xx_HAL_Driver/Src/stm32f0xx_hal_gpio.c **** /**
   2:Drivers/STM32F0xx_HAL_Driver/Src/stm32f0xx_hal_gpio.c ****   ******************************************************************************
   3:Drivers/STM32F0xx_HAL_Driver/Src/stm32f0xx_hal_gpio.c ****   * @file    stm32f0xx_hal_gpio.c
   4:Drivers/STM32F0xx_HAL_Driver/Src/stm32f0xx_hal_gpio.c ****   * @author  MCD Application Team
   5:Drivers/STM32F0xx_HAL_Driver/Src/stm32f0xx_hal_gpio.c ****   * @brief   GPIO HAL module driver.
   6:Drivers/STM32F0xx_HAL_Driver/Src/stm32f0xx_hal_gpio.c ****   *          This file provides firmware functions to manage the following
   7:Drivers/STM32F0xx_HAL_Driver/Src/stm32f0xx_hal_gpio.c ****   *          functionalities of the General Purpose Input/Output (GPIO)
   8:Drivers/STM32F0xx_HAL_Driver/Src/stm32f0xx_hal_gpio.c ****   peripheral:
   9:Drivers/STM32F0xx_HAL_Driver/Src/stm32f0xx_hal_gpio.c ****   *           + Initialization and de-initialization functions
  10:Drivers/STM32F0xx_HAL_Driver/Src/stm32f0xx_hal_gpio.c ****   *           + IO operation functions
  11:Drivers/STM32F0xx_HAL_Driver/Src/stm32f0xx_hal_gpio.c ****   *
  12:Drivers/STM32F0xx_HAL_Driver/Src/stm32f0xx_hal_gpio.c ****   ******************************************************************************
  13:Drivers/STM32F0xx_HAL_Driver/Src/stm32f0xx_hal_gpio.c ****   * @attention
  14:Drivers/STM32F0xx_HAL_Driver/Src/stm32f0xx_hal_gpio.c ****   *
  15:Drivers/STM32F0xx_HAL_Driver/Src/stm32f0xx_hal_gpio.c ****   * Copyright (c) 2016 STMicroelectronics.
  16:Drivers/STM32F0xx_HAL_Driver/Src/stm32f0xx_hal_gpio.c ****   * All rights reserved.
  17:Drivers/STM32F0xx_HAL_Driver/Src/stm32f0xx_hal_gpio.c ****   *
  18:Drivers/STM32F0xx_HAL_Driver/Src/stm32f0xx_hal_gpio.c ****   * This software is licensed under terms that can be found in the LICENSE file
  19:Drivers/STM32F0xx_HAL_Driver/Src/stm32f0xx_hal_gpio.c ****   * in the root directory of this software component.
  20:Drivers/STM32F0xx_HAL_Driver/Src/stm32f0xx_hal_gpio.c ****   * If no LICENSE file comes with this software, it is provided AS-IS.
  21:Drivers/STM32F0xx_HAL_Driver/Src/stm32f0xx_hal_gpio.c ****   *
  22:Drivers/STM32F0xx_HAL_Driver/Src/stm32f0xx_hal_gpio.c ****   ******************************************************************************
  23:Drivers/STM32F0xx_HAL_Driver/Src/stm32f0xx_hal_gpio.c ****   @verbatim
  24:Drivers/STM32F0xx_HAL_Driver/Src/stm32f0xx_hal_gpio.c ****   ==============================================================================
  25:Drivers/STM32F0xx_HAL_Driver/Src/stm32f0xx_hal_gpio.c ****                     ##### GPIO Peripheral features #####
  26:Drivers/STM32F0xx_HAL_Driver/Src/stm32f0xx_hal_gpio.c ****   ==============================================================================
  27:Drivers/STM32F0xx_HAL_Driver/Src/stm32f0xx_hal_gpio.c ****   [..]
  28:Drivers/STM32F0xx_HAL_Driver/Src/stm32f0xx_hal_gpio.c ****     (+) Each port bit of the general-purpose I/O (GPIO) ports can be
  29:Drivers/STM32F0xx_HAL_Driver/Src/stm32f0xx_hal_gpio.c ****   individually configured by software in several modes:
  30:Drivers/STM32F0xx_HAL_Driver/Src/stm32f0xx_hal_gpio.c ****         (++) Input mode
  31:Drivers/STM32F0xx_HAL_Driver/Src/stm32f0xx_hal_gpio.c ****         (++) Analog mode
ARM GAS  /tmp/ccY1Uct9.s 			page 2


  32:Drivers/STM32F0xx_HAL_Driver/Src/stm32f0xx_hal_gpio.c ****         (++) Output mode
  33:Drivers/STM32F0xx_HAL_Driver/Src/stm32f0xx_hal_gpio.c ****         (++) Alternate function mode
  34:Drivers/STM32F0xx_HAL_Driver/Src/stm32f0xx_hal_gpio.c ****         (++) External interrupt/event lines
  35:Drivers/STM32F0xx_HAL_Driver/Src/stm32f0xx_hal_gpio.c **** 
  36:Drivers/STM32F0xx_HAL_Driver/Src/stm32f0xx_hal_gpio.c ****     (+) During and just after reset, the alternate functions and external
  37:Drivers/STM32F0xx_HAL_Driver/Src/stm32f0xx_hal_gpio.c ****   interrupt lines are not active and the I/O ports are configured in input
  38:Drivers/STM32F0xx_HAL_Driver/Src/stm32f0xx_hal_gpio.c ****   floating mode.
  39:Drivers/STM32F0xx_HAL_Driver/Src/stm32f0xx_hal_gpio.c **** 
  40:Drivers/STM32F0xx_HAL_Driver/Src/stm32f0xx_hal_gpio.c ****     (+) All GPIO pins have weak internal pull-up and pull-down resistors, which
  41:Drivers/STM32F0xx_HAL_Driver/Src/stm32f0xx_hal_gpio.c ****   can be activated or not.
  42:Drivers/STM32F0xx_HAL_Driver/Src/stm32f0xx_hal_gpio.c **** 
  43:Drivers/STM32F0xx_HAL_Driver/Src/stm32f0xx_hal_gpio.c ****     (+) In Output or Alternate mode, each IO can be configured on open-drain or
  44:Drivers/STM32F0xx_HAL_Driver/Src/stm32f0xx_hal_gpio.c ****   push-pull type and the IO speed can be selected depending on the VDD value.
  45:Drivers/STM32F0xx_HAL_Driver/Src/stm32f0xx_hal_gpio.c **** 
  46:Drivers/STM32F0xx_HAL_Driver/Src/stm32f0xx_hal_gpio.c ****     (+) The microcontroller IO pins are connected to onboard peripherals/modules
  47:Drivers/STM32F0xx_HAL_Driver/Src/stm32f0xx_hal_gpio.c ****   through a multiplexer that allows only one peripheral alternate function (AF)
  48:Drivers/STM32F0xx_HAL_Driver/Src/stm32f0xx_hal_gpio.c ****   connected to an IO pin at a time. In this way, there can be no conflict
  49:Drivers/STM32F0xx_HAL_Driver/Src/stm32f0xx_hal_gpio.c ****   between peripherals sharing the same IO pin.
  50:Drivers/STM32F0xx_HAL_Driver/Src/stm32f0xx_hal_gpio.c **** 
  51:Drivers/STM32F0xx_HAL_Driver/Src/stm32f0xx_hal_gpio.c ****     (+) All ports have external interrupt/event capability. To use external
  52:Drivers/STM32F0xx_HAL_Driver/Src/stm32f0xx_hal_gpio.c ****   interrupt lines, the port must be configured in input mode. All available GPIO
  53:Drivers/STM32F0xx_HAL_Driver/Src/stm32f0xx_hal_gpio.c ****   pins are connected to the 16 external interrupt/event lines from EXTI0 to
  54:Drivers/STM32F0xx_HAL_Driver/Src/stm32f0xx_hal_gpio.c ****   EXTI15.
  55:Drivers/STM32F0xx_HAL_Driver/Src/stm32f0xx_hal_gpio.c **** 
  56:Drivers/STM32F0xx_HAL_Driver/Src/stm32f0xx_hal_gpio.c ****     (+) The external interrupt/event controller consists of up to 28 edge
  57:Drivers/STM32F0xx_HAL_Driver/Src/stm32f0xx_hal_gpio.c ****   detectors (16 lines are connected to GPIO) for generating event/interrupt
  58:Drivers/STM32F0xx_HAL_Driver/Src/stm32f0xx_hal_gpio.c ****   requests (each input line can be independently configured to select the type
  59:Drivers/STM32F0xx_HAL_Driver/Src/stm32f0xx_hal_gpio.c ****   (interrupt or event) and the corresponding trigger event (rising or falling or
  60:Drivers/STM32F0xx_HAL_Driver/Src/stm32f0xx_hal_gpio.c ****   both). Each line can also be masked independently.
  61:Drivers/STM32F0xx_HAL_Driver/Src/stm32f0xx_hal_gpio.c **** 
  62:Drivers/STM32F0xx_HAL_Driver/Src/stm32f0xx_hal_gpio.c ****             ##### How to use this driver #####
  63:Drivers/STM32F0xx_HAL_Driver/Src/stm32f0xx_hal_gpio.c ****   ==============================================================================
  64:Drivers/STM32F0xx_HAL_Driver/Src/stm32f0xx_hal_gpio.c ****   [..]
  65:Drivers/STM32F0xx_HAL_Driver/Src/stm32f0xx_hal_gpio.c ****    (#) Enable the GPIO AHB clock using the following function :
  66:Drivers/STM32F0xx_HAL_Driver/Src/stm32f0xx_hal_gpio.c ****   __HAL_RCC_GPIOx_CLK_ENABLE().
  67:Drivers/STM32F0xx_HAL_Driver/Src/stm32f0xx_hal_gpio.c **** 
  68:Drivers/STM32F0xx_HAL_Driver/Src/stm32f0xx_hal_gpio.c ****    (#) Configure the GPIO pin(s) using HAL_GPIO_Init().
  69:Drivers/STM32F0xx_HAL_Driver/Src/stm32f0xx_hal_gpio.c ****        (++) Configure the IO mode using "Mode" member from GPIO_InitTypeDef
  70:Drivers/STM32F0xx_HAL_Driver/Src/stm32f0xx_hal_gpio.c ****   structure
  71:Drivers/STM32F0xx_HAL_Driver/Src/stm32f0xx_hal_gpio.c ****        (++) Activate Pull-up, Pull-down resistor using "Pull" member from
  72:Drivers/STM32F0xx_HAL_Driver/Src/stm32f0xx_hal_gpio.c ****   GPIO_InitTypeDef structure.
  73:Drivers/STM32F0xx_HAL_Driver/Src/stm32f0xx_hal_gpio.c ****        (++) In case of Output or alternate function mode selection: the speed is
  74:Drivers/STM32F0xx_HAL_Driver/Src/stm32f0xx_hal_gpio.c ****              configured through "Speed" member from GPIO_InitTypeDef structure.
  75:Drivers/STM32F0xx_HAL_Driver/Src/stm32f0xx_hal_gpio.c ****         (++) In alternate mode is selection, the alternate function connected to
  76:Drivers/STM32F0xx_HAL_Driver/Src/stm32f0xx_hal_gpio.c ****   the IO is configured through "Alternate" member from GPIO_InitTypeDef
  77:Drivers/STM32F0xx_HAL_Driver/Src/stm32f0xx_hal_gpio.c ****   structure.
  78:Drivers/STM32F0xx_HAL_Driver/Src/stm32f0xx_hal_gpio.c ****        (++) Analog mode is required when a pin is to be used as ADC channel
  79:Drivers/STM32F0xx_HAL_Driver/Src/stm32f0xx_hal_gpio.c ****             or DAC output.
  80:Drivers/STM32F0xx_HAL_Driver/Src/stm32f0xx_hal_gpio.c ****        (++) In case of external interrupt/event selection the "Mode" member from
  81:Drivers/STM32F0xx_HAL_Driver/Src/stm32f0xx_hal_gpio.c ****             GPIO_InitTypeDef structure select the type (interrupt or event) and
  82:Drivers/STM32F0xx_HAL_Driver/Src/stm32f0xx_hal_gpio.c ****             the corresponding trigger event (rising or falling or both).
  83:Drivers/STM32F0xx_HAL_Driver/Src/stm32f0xx_hal_gpio.c **** 
  84:Drivers/STM32F0xx_HAL_Driver/Src/stm32f0xx_hal_gpio.c ****    (#) In case of external interrupt/event mode selection, configure NVIC IRQ
  85:Drivers/STM32F0xx_HAL_Driver/Src/stm32f0xx_hal_gpio.c ****   priority mapped to the EXTI line using HAL_NVIC_SetPriority() and enable it
  86:Drivers/STM32F0xx_HAL_Driver/Src/stm32f0xx_hal_gpio.c ****   using HAL_NVIC_EnableIRQ().
  87:Drivers/STM32F0xx_HAL_Driver/Src/stm32f0xx_hal_gpio.c **** 
  88:Drivers/STM32F0xx_HAL_Driver/Src/stm32f0xx_hal_gpio.c ****    (#) HAL_GPIO_DeInit allows to set register values to their reset value. It's
ARM GAS  /tmp/ccY1Uct9.s 			page 3


  89:Drivers/STM32F0xx_HAL_Driver/Src/stm32f0xx_hal_gpio.c ****   also recommended to use it to unconfigure pin which was used as an external
  90:Drivers/STM32F0xx_HAL_Driver/Src/stm32f0xx_hal_gpio.c ****   interrupt or in event mode. That's the only way to reset corresponding bit in
  91:Drivers/STM32F0xx_HAL_Driver/Src/stm32f0xx_hal_gpio.c ****   EXTI & SYSCFG registers.
  92:Drivers/STM32F0xx_HAL_Driver/Src/stm32f0xx_hal_gpio.c **** 
  93:Drivers/STM32F0xx_HAL_Driver/Src/stm32f0xx_hal_gpio.c ****    (#) To get the level of a pin configured in input mode use
  94:Drivers/STM32F0xx_HAL_Driver/Src/stm32f0xx_hal_gpio.c ****   HAL_GPIO_ReadPin().
  95:Drivers/STM32F0xx_HAL_Driver/Src/stm32f0xx_hal_gpio.c **** 
  96:Drivers/STM32F0xx_HAL_Driver/Src/stm32f0xx_hal_gpio.c ****    (#) To set/reset the level of a pin configured in output mode use
  97:Drivers/STM32F0xx_HAL_Driver/Src/stm32f0xx_hal_gpio.c ****        HAL_GPIO_WritePin()/HAL_GPIO_TogglePin().
  98:Drivers/STM32F0xx_HAL_Driver/Src/stm32f0xx_hal_gpio.c **** 
  99:Drivers/STM32F0xx_HAL_Driver/Src/stm32f0xx_hal_gpio.c ****    (#) To lock pin configuration until next reset use HAL_GPIO_LockPin().
 100:Drivers/STM32F0xx_HAL_Driver/Src/stm32f0xx_hal_gpio.c **** 
 101:Drivers/STM32F0xx_HAL_Driver/Src/stm32f0xx_hal_gpio.c ****    (#) During and just after reset, the alternate functions are not
 102:Drivers/STM32F0xx_HAL_Driver/Src/stm32f0xx_hal_gpio.c ****        active and the GPIO pins are configured in input floating mode (except
 103:Drivers/STM32F0xx_HAL_Driver/Src/stm32f0xx_hal_gpio.c ****   JTAG pins).
 104:Drivers/STM32F0xx_HAL_Driver/Src/stm32f0xx_hal_gpio.c **** 
 105:Drivers/STM32F0xx_HAL_Driver/Src/stm32f0xx_hal_gpio.c ****    (#) The LSE oscillator pins OSC32_IN and OSC32_OUT can be used as general
 106:Drivers/STM32F0xx_HAL_Driver/Src/stm32f0xx_hal_gpio.c ****   purpose (PC14 and PC15, respectively) when the LSE oscillator is off. The LSE
 107:Drivers/STM32F0xx_HAL_Driver/Src/stm32f0xx_hal_gpio.c ****   has priority over the GPIO function.
 108:Drivers/STM32F0xx_HAL_Driver/Src/stm32f0xx_hal_gpio.c **** 
 109:Drivers/STM32F0xx_HAL_Driver/Src/stm32f0xx_hal_gpio.c ****    (#) The HSE oscillator pins OSC_IN/OSC_OUT can be used as
 110:Drivers/STM32F0xx_HAL_Driver/Src/stm32f0xx_hal_gpio.c ****         general purpose PF0 and PF1, respectively, when the HSE oscillator is
 111:Drivers/STM32F0xx_HAL_Driver/Src/stm32f0xx_hal_gpio.c ****   off. The HSE has priority over the GPIO function.
 112:Drivers/STM32F0xx_HAL_Driver/Src/stm32f0xx_hal_gpio.c **** 
 113:Drivers/STM32F0xx_HAL_Driver/Src/stm32f0xx_hal_gpio.c ****   @endverbatim
 114:Drivers/STM32F0xx_HAL_Driver/Src/stm32f0xx_hal_gpio.c ****   ******************************************************************************
 115:Drivers/STM32F0xx_HAL_Driver/Src/stm32f0xx_hal_gpio.c ****   */
 116:Drivers/STM32F0xx_HAL_Driver/Src/stm32f0xx_hal_gpio.c **** 
 117:Drivers/STM32F0xx_HAL_Driver/Src/stm32f0xx_hal_gpio.c **** /* Includes ------------------------------------------------------------------*/
 118:Drivers/STM32F0xx_HAL_Driver/Src/stm32f0xx_hal_gpio.c **** #include "stm32f0xx_hal.h"
 119:Drivers/STM32F0xx_HAL_Driver/Src/stm32f0xx_hal_gpio.c **** 
 120:Drivers/STM32F0xx_HAL_Driver/Src/stm32f0xx_hal_gpio.c **** /** @addtogroup STM32F0xx_HAL_Driver
 121:Drivers/STM32F0xx_HAL_Driver/Src/stm32f0xx_hal_gpio.c ****  * @{
 122:Drivers/STM32F0xx_HAL_Driver/Src/stm32f0xx_hal_gpio.c ****  */
 123:Drivers/STM32F0xx_HAL_Driver/Src/stm32f0xx_hal_gpio.c **** 
 124:Drivers/STM32F0xx_HAL_Driver/Src/stm32f0xx_hal_gpio.c **** /** @defgroup GPIO GPIO
 125:Drivers/STM32F0xx_HAL_Driver/Src/stm32f0xx_hal_gpio.c ****  * @brief GPIO HAL module driver
 126:Drivers/STM32F0xx_HAL_Driver/Src/stm32f0xx_hal_gpio.c ****  * @{
 127:Drivers/STM32F0xx_HAL_Driver/Src/stm32f0xx_hal_gpio.c ****  */
 128:Drivers/STM32F0xx_HAL_Driver/Src/stm32f0xx_hal_gpio.c **** 
 129:Drivers/STM32F0xx_HAL_Driver/Src/stm32f0xx_hal_gpio.c **** /** MISRA C:2012 deviation rule has been granted for following rules:
 130:Drivers/STM32F0xx_HAL_Driver/Src/stm32f0xx_hal_gpio.c ****  * Rule-18.1_d - Medium: Array pointer `GPIOx' is accessed with index [..,..]
 131:Drivers/STM32F0xx_HAL_Driver/Src/stm32f0xx_hal_gpio.c ****  * which may be out of array bounds [..,UNKNOWN] in following APIs:
 132:Drivers/STM32F0xx_HAL_Driver/Src/stm32f0xx_hal_gpio.c ****  * HAL_GPIO_Init
 133:Drivers/STM32F0xx_HAL_Driver/Src/stm32f0xx_hal_gpio.c ****  * HAL_GPIO_DeInit
 134:Drivers/STM32F0xx_HAL_Driver/Src/stm32f0xx_hal_gpio.c ****  */
 135:Drivers/STM32F0xx_HAL_Driver/Src/stm32f0xx_hal_gpio.c **** 
 136:Drivers/STM32F0xx_HAL_Driver/Src/stm32f0xx_hal_gpio.c **** #ifdef HAL_GPIO_MODULE_ENABLED
 137:Drivers/STM32F0xx_HAL_Driver/Src/stm32f0xx_hal_gpio.c **** 
 138:Drivers/STM32F0xx_HAL_Driver/Src/stm32f0xx_hal_gpio.c **** /* Private typedef -----------------------------------------------------------*/
 139:Drivers/STM32F0xx_HAL_Driver/Src/stm32f0xx_hal_gpio.c **** /* Private defines -----------------------------------------------------------*/
 140:Drivers/STM32F0xx_HAL_Driver/Src/stm32f0xx_hal_gpio.c **** /** @addtogroup GPIO_Private_Constants GPIO Private Constants
 141:Drivers/STM32F0xx_HAL_Driver/Src/stm32f0xx_hal_gpio.c ****  * @{
 142:Drivers/STM32F0xx_HAL_Driver/Src/stm32f0xx_hal_gpio.c ****  */
 143:Drivers/STM32F0xx_HAL_Driver/Src/stm32f0xx_hal_gpio.c **** #define GPIO_NUMBER 16U
 144:Drivers/STM32F0xx_HAL_Driver/Src/stm32f0xx_hal_gpio.c **** /**
 145:Drivers/STM32F0xx_HAL_Driver/Src/stm32f0xx_hal_gpio.c ****  * @}
ARM GAS  /tmp/ccY1Uct9.s 			page 4


 146:Drivers/STM32F0xx_HAL_Driver/Src/stm32f0xx_hal_gpio.c ****  */
 147:Drivers/STM32F0xx_HAL_Driver/Src/stm32f0xx_hal_gpio.c **** 
 148:Drivers/STM32F0xx_HAL_Driver/Src/stm32f0xx_hal_gpio.c **** /* Private macros ------------------------------------------------------------*/
 149:Drivers/STM32F0xx_HAL_Driver/Src/stm32f0xx_hal_gpio.c **** /* Private variables ---------------------------------------------------------*/
 150:Drivers/STM32F0xx_HAL_Driver/Src/stm32f0xx_hal_gpio.c **** /* Private function prototypes -----------------------------------------------*/
 151:Drivers/STM32F0xx_HAL_Driver/Src/stm32f0xx_hal_gpio.c **** /* Exported functions --------------------------------------------------------*/
 152:Drivers/STM32F0xx_HAL_Driver/Src/stm32f0xx_hal_gpio.c **** 
 153:Drivers/STM32F0xx_HAL_Driver/Src/stm32f0xx_hal_gpio.c **** /** @defgroup GPIO_Exported_Functions GPIO Exported Functions
 154:Drivers/STM32F0xx_HAL_Driver/Src/stm32f0xx_hal_gpio.c ****  * @{
 155:Drivers/STM32F0xx_HAL_Driver/Src/stm32f0xx_hal_gpio.c ****  */
 156:Drivers/STM32F0xx_HAL_Driver/Src/stm32f0xx_hal_gpio.c **** 
 157:Drivers/STM32F0xx_HAL_Driver/Src/stm32f0xx_hal_gpio.c **** /** @defgroup GPIO_Exported_Functions_Group1 Initialization/de-initialization
 158:Drivers/STM32F0xx_HAL_Driver/Src/stm32f0xx_hal_gpio.c **** functions
 159:Drivers/STM32F0xx_HAL_Driver/Src/stm32f0xx_hal_gpio.c ****  *  @brief    Initialization and Configuration functions
 160:Drivers/STM32F0xx_HAL_Driver/Src/stm32f0xx_hal_gpio.c ****  *
 161:Drivers/STM32F0xx_HAL_Driver/Src/stm32f0xx_hal_gpio.c **** @verbatim
 162:Drivers/STM32F0xx_HAL_Driver/Src/stm32f0xx_hal_gpio.c ****  ===============================================================================
 163:Drivers/STM32F0xx_HAL_Driver/Src/stm32f0xx_hal_gpio.c ****               ##### Initialization and de-initialization functions #####
 164:Drivers/STM32F0xx_HAL_Driver/Src/stm32f0xx_hal_gpio.c ****  ===============================================================================
 165:Drivers/STM32F0xx_HAL_Driver/Src/stm32f0xx_hal_gpio.c **** 
 166:Drivers/STM32F0xx_HAL_Driver/Src/stm32f0xx_hal_gpio.c **** @endverbatim
 167:Drivers/STM32F0xx_HAL_Driver/Src/stm32f0xx_hal_gpio.c ****   * @{
 168:Drivers/STM32F0xx_HAL_Driver/Src/stm32f0xx_hal_gpio.c ****   */
 169:Drivers/STM32F0xx_HAL_Driver/Src/stm32f0xx_hal_gpio.c **** 
 170:Drivers/STM32F0xx_HAL_Driver/Src/stm32f0xx_hal_gpio.c **** /**
 171:Drivers/STM32F0xx_HAL_Driver/Src/stm32f0xx_hal_gpio.c ****  * @brief  Initialize the GPIOx peripheral according to the specified parameters
 172:Drivers/STM32F0xx_HAL_Driver/Src/stm32f0xx_hal_gpio.c ****  * in the GPIO_Init.
 173:Drivers/STM32F0xx_HAL_Driver/Src/stm32f0xx_hal_gpio.c ****  * @param  GPIOx where x can be (A..F) to select the GPIO peripheral for STM32F0
 174:Drivers/STM32F0xx_HAL_Driver/Src/stm32f0xx_hal_gpio.c ****  * family
 175:Drivers/STM32F0xx_HAL_Driver/Src/stm32f0xx_hal_gpio.c ****  * @param  GPIO_Init pointer to a GPIO_InitTypeDef structure that contains
 176:Drivers/STM32F0xx_HAL_Driver/Src/stm32f0xx_hal_gpio.c ****  *         the configuration information for the specified GPIO peripheral.
 177:Drivers/STM32F0xx_HAL_Driver/Src/stm32f0xx_hal_gpio.c ****  * @retval None
 178:Drivers/STM32F0xx_HAL_Driver/Src/stm32f0xx_hal_gpio.c ****  */
 179:Drivers/STM32F0xx_HAL_Driver/Src/stm32f0xx_hal_gpio.c **** void HAL_GPIO_Init (GPIO_TypeDef *GPIOx, GPIO_InitTypeDef *GPIO_Init) {
  28              		.loc 1 179 71 view -0
  29              		.cfi_startproc
  30              		@ args = 0, pretend = 0, frame = 8
  31              		@ frame_needed = 0, uses_anonymous_args = 0
  32              		.loc 1 179 71 is_stmt 0 view .LVU1
  33 0000 F0B5     		push	{r4, r5, r6, r7, lr}
  34              	.LCFI0:
  35              		.cfi_def_cfa_offset 20
  36              		.cfi_offset 4, -20
  37              		.cfi_offset 5, -16
  38              		.cfi_offset 6, -12
  39              		.cfi_offset 7, -8
  40              		.cfi_offset 14, -4
  41 0002 83B0     		sub	sp, sp, #12
  42              	.LCFI1:
  43              		.cfi_def_cfa_offset 32
 180:Drivers/STM32F0xx_HAL_Driver/Src/stm32f0xx_hal_gpio.c ****   uint32_t position = 0x00u;
  44              		.loc 1 180 3 is_stmt 1 view .LVU2
  45              	.LVL1:
 181:Drivers/STM32F0xx_HAL_Driver/Src/stm32f0xx_hal_gpio.c ****   uint32_t iocurrent;
  46              		.loc 1 181 3 view .LVU3
 182:Drivers/STM32F0xx_HAL_Driver/Src/stm32f0xx_hal_gpio.c ****   uint32_t temp;
  47              		.loc 1 182 3 view .LVU4
ARM GAS  /tmp/ccY1Uct9.s 			page 5


 183:Drivers/STM32F0xx_HAL_Driver/Src/stm32f0xx_hal_gpio.c **** 
 184:Drivers/STM32F0xx_HAL_Driver/Src/stm32f0xx_hal_gpio.c ****   assert_param(IS_GPIO_ALL_INSTANCE(GPIOx));
  48              		.loc 1 184 3 view .LVU5
 185:Drivers/STM32F0xx_HAL_Driver/Src/stm32f0xx_hal_gpio.c ****   assert_param(IS_GPIO_PIN(GPIO_Init -> Pin));
  49              		.loc 1 185 3 view .LVU6
 186:Drivers/STM32F0xx_HAL_Driver/Src/stm32f0xx_hal_gpio.c ****   assert_param(IS_GPIO_MODE(GPIO_Init -> Mode));
  50              		.loc 1 186 3 view .LVU7
 187:Drivers/STM32F0xx_HAL_Driver/Src/stm32f0xx_hal_gpio.c **** 
 188:Drivers/STM32F0xx_HAL_Driver/Src/stm32f0xx_hal_gpio.c ****   while (((GPIO_Init -> Pin) >> position) != 0x00u) {
  51              		.loc 1 188 3 view .LVU8
 180:Drivers/STM32F0xx_HAL_Driver/Src/stm32f0xx_hal_gpio.c ****   uint32_t iocurrent;
  52              		.loc 1 180 12 is_stmt 0 view .LVU9
  53 0004 0023     		movs	r3, #0
  54              		.loc 1 188 9 view .LVU10
  55 0006 56E0     		b	.L2
  56              	.LVL2:
  57              	.L22:
 189:Drivers/STM32F0xx_HAL_Driver/Src/stm32f0xx_hal_gpio.c ****     iocurrent = (GPIO_Init -> Pin) & (1uL << position);
 190:Drivers/STM32F0xx_HAL_Driver/Src/stm32f0xx_hal_gpio.c **** 
 191:Drivers/STM32F0xx_HAL_Driver/Src/stm32f0xx_hal_gpio.c ****     if (iocurrent != 0x00u) {
 192:Drivers/STM32F0xx_HAL_Driver/Src/stm32f0xx_hal_gpio.c ****       if (((GPIO_Init -> Mode & GPIO_MODE) == MODE_OUTPUT) || ((GPIO_Init -> Mode & GPIO_MODE) == M
 193:Drivers/STM32F0xx_HAL_Driver/Src/stm32f0xx_hal_gpio.c ****         assert_param(IS_GPIO_SPEED(GPIO_Init -> Speed));
  58              		.loc 1 193 9 is_stmt 1 view .LVU11
 194:Drivers/STM32F0xx_HAL_Driver/Src/stm32f0xx_hal_gpio.c ****         temp = GPIOx -> OSPEEDR;
  59              		.loc 1 194 9 view .LVU12
  60              		.loc 1 194 14 is_stmt 0 view .LVU13
  61 0008 8668     		ldr	r6, [r0, #8]
  62              	.LVL3:
 195:Drivers/STM32F0xx_HAL_Driver/Src/stm32f0xx_hal_gpio.c ****         temp &= ~(GPIO_OSPEEDER_OSPEEDR0 << (position * 2u));
  63              		.loc 1 195 9 is_stmt 1 view .LVU14
  64              		.loc 1 195 55 is_stmt 0 view .LVU15
  65 000a 5F00     		lsls	r7, r3, #1
  66              		.loc 1 195 42 view .LVU16
  67 000c 0324     		movs	r4, #3
  68 000e BC40     		lsls	r4, r4, r7
  69              		.loc 1 195 14 view .LVU17
  70 0010 A643     		bics	r6, r4
  71              	.LVL4:
 196:Drivers/STM32F0xx_HAL_Driver/Src/stm32f0xx_hal_gpio.c ****         temp |= (GPIO_Init -> Speed << (position * 2u));
  72              		.loc 1 196 9 is_stmt 1 view .LVU18
  73              		.loc 1 196 28 is_stmt 0 view .LVU19
  74 0012 CC68     		ldr	r4, [r1, #12]
  75              		.loc 1 196 37 view .LVU20
  76 0014 BC40     		lsls	r4, r4, r7
  77              		.loc 1 196 14 view .LVU21
  78 0016 3443     		orrs	r4, r6
  79              	.LVL5:
 197:Drivers/STM32F0xx_HAL_Driver/Src/stm32f0xx_hal_gpio.c ****         GPIOx -> OSPEEDR = temp;
  80              		.loc 1 197 9 is_stmt 1 view .LVU22
  81              		.loc 1 197 26 is_stmt 0 view .LVU23
  82 0018 8460     		str	r4, [r0, #8]
 198:Drivers/STM32F0xx_HAL_Driver/Src/stm32f0xx_hal_gpio.c **** 
 199:Drivers/STM32F0xx_HAL_Driver/Src/stm32f0xx_hal_gpio.c ****         temp = GPIOx -> OTYPER;
  83              		.loc 1 199 9 is_stmt 1 view .LVU24
  84              		.loc 1 199 14 is_stmt 0 view .LVU25
  85 001a 4468     		ldr	r4, [r0, #4]
  86              	.LVL6:
ARM GAS  /tmp/ccY1Uct9.s 			page 6


 200:Drivers/STM32F0xx_HAL_Driver/Src/stm32f0xx_hal_gpio.c ****         temp &= ~(GPIO_OTYPER_OT_0 << position);
  87              		.loc 1 200 9 is_stmt 1 view .LVU26
  88              		.loc 1 200 14 is_stmt 0 view .LVU27
  89 001c 9443     		bics	r4, r2
  90              	.LVL7:
 201:Drivers/STM32F0xx_HAL_Driver/Src/stm32f0xx_hal_gpio.c ****         temp |= (((GPIO_Init -> Mode & OUTPUT_TYPE) >> OUTPUT_TYPE_Pos) << position);
  91              		.loc 1 201 9 is_stmt 1 view .LVU28
  92              		.loc 1 201 30 is_stmt 0 view .LVU29
  93 001e 4E68     		ldr	r6, [r1, #4]
  94              		.loc 1 201 53 view .LVU30
  95 0020 3609     		lsrs	r6, r6, #4
  96 0022 0122     		movs	r2, #1
  97 0024 3240     		ands	r2, r6
  98              		.loc 1 201 73 view .LVU31
  99 0026 9A40     		lsls	r2, r2, r3
 100              		.loc 1 201 14 view .LVU32
 101 0028 2243     		orrs	r2, r4
 102              	.LVL8:
 202:Drivers/STM32F0xx_HAL_Driver/Src/stm32f0xx_hal_gpio.c ****         GPIOx -> OTYPER = temp;
 103              		.loc 1 202 9 is_stmt 1 view .LVU33
 104              		.loc 1 202 25 is_stmt 0 view .LVU34
 105 002a 4260     		str	r2, [r0, #4]
 106 002c 53E0     		b	.L4
 107              	.LVL9:
 108              	.L23:
 203:Drivers/STM32F0xx_HAL_Driver/Src/stm32f0xx_hal_gpio.c ****       }
 204:Drivers/STM32F0xx_HAL_Driver/Src/stm32f0xx_hal_gpio.c **** 
 205:Drivers/STM32F0xx_HAL_Driver/Src/stm32f0xx_hal_gpio.c ****       if ((GPIO_Init -> Mode & GPIO_MODE) != MODE_ANALOG) {
 206:Drivers/STM32F0xx_HAL_Driver/Src/stm32f0xx_hal_gpio.c ****         assert_param(IS_GPIO_PULL(GPIO_Init -> Pull));
 207:Drivers/STM32F0xx_HAL_Driver/Src/stm32f0xx_hal_gpio.c **** 
 208:Drivers/STM32F0xx_HAL_Driver/Src/stm32f0xx_hal_gpio.c ****         temp = GPIOx -> PUPDR;
 209:Drivers/STM32F0xx_HAL_Driver/Src/stm32f0xx_hal_gpio.c ****         temp &= ~(GPIO_PUPDR_PUPDR0 << (position * 2u));
 210:Drivers/STM32F0xx_HAL_Driver/Src/stm32f0xx_hal_gpio.c ****         temp |= (((GPIO_Init -> Pull) >> OUTPUT_TYPE_Pos) << position);
 211:Drivers/STM32F0xx_HAL_Driver/Src/stm32f0xx_hal_gpio.c ****         GPIOx -> PUPDR = temp;
 212:Drivers/STM32F0xx_HAL_Driver/Src/stm32f0xx_hal_gpio.c ****       }
 213:Drivers/STM32F0xx_HAL_Driver/Src/stm32f0xx_hal_gpio.c **** 
 214:Drivers/STM32F0xx_HAL_Driver/Src/stm32f0xx_hal_gpio.c ****       if ((GPIO_Init -> Mode & GPIO_MODE) == MODE_AF) {
 215:Drivers/STM32F0xx_HAL_Driver/Src/stm32f0xx_hal_gpio.c ****         assert_param(IS_GPIO_AF_INSTANCE(GPIOx));
 109              		.loc 1 215 9 is_stmt 1 view .LVU35
 216:Drivers/STM32F0xx_HAL_Driver/Src/stm32f0xx_hal_gpio.c ****         assert_param(IS_GPIO_AF(GPIO_Init -> Alternate));
 110              		.loc 1 216 9 view .LVU36
 217:Drivers/STM32F0xx_HAL_Driver/Src/stm32f0xx_hal_gpio.c **** 
 218:Drivers/STM32F0xx_HAL_Driver/Src/stm32f0xx_hal_gpio.c ****         temp = GPIOx -> AFR[position >> 3u];
 111              		.loc 1 218 9 view .LVU37
 112              		.loc 1 218 38 is_stmt 0 view .LVU38
 113 002e DC08     		lsrs	r4, r3, #3
 114              		.loc 1 218 14 view .LVU39
 115 0030 0834     		adds	r4, r4, #8
 116 0032 A400     		lsls	r4, r4, #2
 117 0034 2658     		ldr	r6, [r4, r0]
 118              	.LVL10:
 219:Drivers/STM32F0xx_HAL_Driver/Src/stm32f0xx_hal_gpio.c ****         temp &= ~(0xFu << ((position & 0x07u) * 4u));
 119              		.loc 1 219 9 is_stmt 1 view .LVU40
 120              		.loc 1 219 38 is_stmt 0 view .LVU41
 121 0036 0532     		adds	r2, r2, #5
 122 0038 1A40     		ands	r2, r3
 123              		.loc 1 219 47 view .LVU42
ARM GAS  /tmp/ccY1Uct9.s 			page 7


 124 003a 9200     		lsls	r2, r2, #2
 125              		.loc 1 219 24 view .LVU43
 126 003c 0F27     		movs	r7, #15
 127 003e 9740     		lsls	r7, r7, r2
 128              		.loc 1 219 14 view .LVU44
 129 0040 BE43     		bics	r6, r7
 130              	.LVL11:
 220:Drivers/STM32F0xx_HAL_Driver/Src/stm32f0xx_hal_gpio.c ****         temp |= (((GPIO_Init -> Alternate) >> OUTPUT_TYPE_Pos) << position);
 131              		.loc 1 220 9 is_stmt 1 view .LVU45
 132              		.loc 1 220 30 is_stmt 0 view .LVU46
 133 0042 0A69     		ldr	r2, [r1, #16]
 134              		.loc 1 220 44 view .LVU47
 135 0044 1209     		lsrs	r2, r2, #4
 136              		.loc 1 220 64 view .LVU48
 137 0046 9A40     		lsls	r2, r2, r3
 138              		.loc 1 220 14 view .LVU49
 139 0048 3243     		orrs	r2, r6
 140              	.LVL12:
 221:Drivers/STM32F0xx_HAL_Driver/Src/stm32f0xx_hal_gpio.c ****         GPIOx -> AFR[position >> 3u] = temp;
 141              		.loc 1 221 9 is_stmt 1 view .LVU50
 142              		.loc 1 221 38 is_stmt 0 view .LVU51
 143 004a 2250     		str	r2, [r4, r0]
 144 004c 57E0     		b	.L6
 145              	.LVL13:
 146              	.L24:
 222:Drivers/STM32F0xx_HAL_Driver/Src/stm32f0xx_hal_gpio.c ****       }
 223:Drivers/STM32F0xx_HAL_Driver/Src/stm32f0xx_hal_gpio.c **** 
 224:Drivers/STM32F0xx_HAL_Driver/Src/stm32f0xx_hal_gpio.c ****       temp = GPIOx -> MODER;
 225:Drivers/STM32F0xx_HAL_Driver/Src/stm32f0xx_hal_gpio.c ****       temp &= ~(GPIO_MODER_MODER0 << (position * 2u));
 226:Drivers/STM32F0xx_HAL_Driver/Src/stm32f0xx_hal_gpio.c ****       temp |= ((GPIO_Init -> Mode & GPIO_MODE) << (position * 2u));
 227:Drivers/STM32F0xx_HAL_Driver/Src/stm32f0xx_hal_gpio.c ****       GPIOx -> MODER = temp;
 228:Drivers/STM32F0xx_HAL_Driver/Src/stm32f0xx_hal_gpio.c **** 
 229:Drivers/STM32F0xx_HAL_Driver/Src/stm32f0xx_hal_gpio.c ****       if ((GPIO_Init -> Mode & EXTI_MODE) != 0x00u) {
 230:Drivers/STM32F0xx_HAL_Driver/Src/stm32f0xx_hal_gpio.c ****         __HAL_RCC_SYSCFG_CLK_ENABLE();
 231:Drivers/STM32F0xx_HAL_Driver/Src/stm32f0xx_hal_gpio.c **** 
 232:Drivers/STM32F0xx_HAL_Driver/Src/stm32f0xx_hal_gpio.c ****         temp = SYSCFG -> EXTICR[position >> 2u];
 233:Drivers/STM32F0xx_HAL_Driver/Src/stm32f0xx_hal_gpio.c ****         temp &= ~(0x0FuL << (4u * (position & 0x03u)));
 234:Drivers/STM32F0xx_HAL_Driver/Src/stm32f0xx_hal_gpio.c ****         temp |= (GPIO_GET_INDEX(GPIOx) << (4u * (position & 0x03u)));
 147              		.loc 1 234 18 discriminator 7 view .LVU52
 148 004e 0326     		movs	r6, #3
 149 0050 00E0     		b	.L7
 150              	.L13:
 151              		.loc 1 234 18 discriminator 2 view .LVU53
 152 0052 0026     		movs	r6, #0
 153              	.L7:
 154              		.loc 1 234 40 discriminator 16 view .LVU54
 155 0054 A640     		lsls	r6, r6, r4
 156 0056 3400     		movs	r4, r6
 157              		.loc 1 234 14 discriminator 16 view .LVU55
 158 0058 3C43     		orrs	r4, r7
 159              	.LVL14:
 235:Drivers/STM32F0xx_HAL_Driver/Src/stm32f0xx_hal_gpio.c ****         SYSCFG -> EXTICR[position >> 2u] = temp;
 160              		.loc 1 235 9 is_stmt 1 view .LVU56
 161              		.loc 1 235 42 is_stmt 0 view .LVU57
 162 005a 0232     		adds	r2, r2, #2
 163 005c 9200     		lsls	r2, r2, #2
 164 005e 454E     		ldr	r6, .L25
ARM GAS  /tmp/ccY1Uct9.s 			page 8


 165 0060 9451     		str	r4, [r2, r6]
 236:Drivers/STM32F0xx_HAL_Driver/Src/stm32f0xx_hal_gpio.c **** 
 237:Drivers/STM32F0xx_HAL_Driver/Src/stm32f0xx_hal_gpio.c ****         temp = EXTI -> RTSR;
 166              		.loc 1 237 9 is_stmt 1 view .LVU58
 167              		.loc 1 237 14 is_stmt 0 view .LVU59
 168 0062 454A     		ldr	r2, .L25+4
 169 0064 9768     		ldr	r7, [r2, #8]
 170              	.LVL15:
 238:Drivers/STM32F0xx_HAL_Driver/Src/stm32f0xx_hal_gpio.c ****         temp &= ~(iocurrent);
 171              		.loc 1 238 9 is_stmt 1 view .LVU60
 172              		.loc 1 238 17 is_stmt 0 view .LVU61
 173 0066 EA43     		mvns	r2, r5
 174              		.loc 1 238 14 view .LVU62
 175 0068 3E00     		movs	r6, r7
 176 006a AE43     		bics	r6, r5
 177              	.LVL16:
 239:Drivers/STM32F0xx_HAL_Driver/Src/stm32f0xx_hal_gpio.c ****         if ((GPIO_Init -> Mode & TRIGGER_RISING) != 0x00u) {
 178              		.loc 1 239 9 is_stmt 1 view .LVU63
 179              		.loc 1 239 24 is_stmt 0 view .LVU64
 180 006c 4C68     		ldr	r4, [r1, #4]
 181              		.loc 1 239 12 view .LVU65
 182 006e E402     		lsls	r4, r4, #11
 183 0070 01D5     		bpl	.L8
 240:Drivers/STM32F0xx_HAL_Driver/Src/stm32f0xx_hal_gpio.c ****           temp |= iocurrent;
 184              		.loc 1 240 11 is_stmt 1 view .LVU66
 185              		.loc 1 240 16 is_stmt 0 view .LVU67
 186 0072 3E00     		movs	r6, r7
 187              	.LVL17:
 188              		.loc 1 240 16 view .LVU68
 189 0074 2E43     		orrs	r6, r5
 190              	.LVL18:
 191              	.L8:
 241:Drivers/STM32F0xx_HAL_Driver/Src/stm32f0xx_hal_gpio.c ****         }
 242:Drivers/STM32F0xx_HAL_Driver/Src/stm32f0xx_hal_gpio.c ****         EXTI -> RTSR = temp;
 192              		.loc 1 242 9 is_stmt 1 view .LVU69
 193              		.loc 1 242 22 is_stmt 0 view .LVU70
 194 0076 404C     		ldr	r4, .L25+4
 195 0078 A660     		str	r6, [r4, #8]
 243:Drivers/STM32F0xx_HAL_Driver/Src/stm32f0xx_hal_gpio.c **** 
 244:Drivers/STM32F0xx_HAL_Driver/Src/stm32f0xx_hal_gpio.c ****         temp = EXTI -> FTSR;
 196              		.loc 1 244 9 is_stmt 1 view .LVU71
 197              		.loc 1 244 14 is_stmt 0 view .LVU72
 198 007a E768     		ldr	r7, [r4, #12]
 199              	.LVL19:
 245:Drivers/STM32F0xx_HAL_Driver/Src/stm32f0xx_hal_gpio.c ****         temp &= ~(iocurrent);
 200              		.loc 1 245 9 is_stmt 1 view .LVU73
 201              		.loc 1 245 14 is_stmt 0 view .LVU74
 202 007c 3E00     		movs	r6, r7
 203 007e 1640     		ands	r6, r2
 204              	.LVL20:
 246:Drivers/STM32F0xx_HAL_Driver/Src/stm32f0xx_hal_gpio.c ****         if ((GPIO_Init -> Mode & TRIGGER_FALLING) != 0x00u) {
 205              		.loc 1 246 9 is_stmt 1 view .LVU75
 206              		.loc 1 246 24 is_stmt 0 view .LVU76
 207 0080 4C68     		ldr	r4, [r1, #4]
 208              		.loc 1 246 12 view .LVU77
 209 0082 A402     		lsls	r4, r4, #10
 210 0084 01D5     		bpl	.L9
ARM GAS  /tmp/ccY1Uct9.s 			page 9


 247:Drivers/STM32F0xx_HAL_Driver/Src/stm32f0xx_hal_gpio.c ****           temp |= iocurrent;
 211              		.loc 1 247 11 is_stmt 1 view .LVU78
 212              		.loc 1 247 16 is_stmt 0 view .LVU79
 213 0086 3E00     		movs	r6, r7
 214              	.LVL21:
 215              		.loc 1 247 16 view .LVU80
 216 0088 2E43     		orrs	r6, r5
 217              	.LVL22:
 218              	.L9:
 248:Drivers/STM32F0xx_HAL_Driver/Src/stm32f0xx_hal_gpio.c ****         }
 249:Drivers/STM32F0xx_HAL_Driver/Src/stm32f0xx_hal_gpio.c ****         EXTI -> FTSR = temp;
 219              		.loc 1 249 9 is_stmt 1 view .LVU81
 220              		.loc 1 249 22 is_stmt 0 view .LVU82
 221 008a 3B4C     		ldr	r4, .L25+4
 222 008c E660     		str	r6, [r4, #12]
 250:Drivers/STM32F0xx_HAL_Driver/Src/stm32f0xx_hal_gpio.c **** 
 251:Drivers/STM32F0xx_HAL_Driver/Src/stm32f0xx_hal_gpio.c ****         temp = EXTI -> EMR;
 223              		.loc 1 251 9 is_stmt 1 view .LVU83
 224              		.loc 1 251 14 is_stmt 0 view .LVU84
 225 008e 6768     		ldr	r7, [r4, #4]
 226              	.LVL23:
 252:Drivers/STM32F0xx_HAL_Driver/Src/stm32f0xx_hal_gpio.c ****         temp &= ~(iocurrent);
 227              		.loc 1 252 9 is_stmt 1 view .LVU85
 228              		.loc 1 252 14 is_stmt 0 view .LVU86
 229 0090 3E00     		movs	r6, r7
 230 0092 1640     		ands	r6, r2
 231              	.LVL24:
 253:Drivers/STM32F0xx_HAL_Driver/Src/stm32f0xx_hal_gpio.c ****         if ((GPIO_Init -> Mode & EXTI_EVT) != 0x00u) {
 232              		.loc 1 253 9 is_stmt 1 view .LVU87
 233              		.loc 1 253 24 is_stmt 0 view .LVU88
 234 0094 4C68     		ldr	r4, [r1, #4]
 235              		.loc 1 253 12 view .LVU89
 236 0096 A403     		lsls	r4, r4, #14
 237 0098 01D5     		bpl	.L10
 254:Drivers/STM32F0xx_HAL_Driver/Src/stm32f0xx_hal_gpio.c ****           temp |= iocurrent;
 238              		.loc 1 254 11 is_stmt 1 view .LVU90
 239              		.loc 1 254 16 is_stmt 0 view .LVU91
 240 009a 3E00     		movs	r6, r7
 241              	.LVL25:
 242              		.loc 1 254 16 view .LVU92
 243 009c 2E43     		orrs	r6, r5
 244              	.LVL26:
 245              	.L10:
 255:Drivers/STM32F0xx_HAL_Driver/Src/stm32f0xx_hal_gpio.c ****         }
 256:Drivers/STM32F0xx_HAL_Driver/Src/stm32f0xx_hal_gpio.c ****         EXTI -> EMR = temp;
 246              		.loc 1 256 9 is_stmt 1 view .LVU93
 247              		.loc 1 256 21 is_stmt 0 view .LVU94
 248 009e 364C     		ldr	r4, .L25+4
 249 00a0 6660     		str	r6, [r4, #4]
 257:Drivers/STM32F0xx_HAL_Driver/Src/stm32f0xx_hal_gpio.c **** 
 258:Drivers/STM32F0xx_HAL_Driver/Src/stm32f0xx_hal_gpio.c ****         temp = EXTI -> IMR;
 250              		.loc 1 258 9 is_stmt 1 view .LVU95
 251              		.loc 1 258 14 is_stmt 0 view .LVU96
 252 00a2 2668     		ldr	r6, [r4]
 253              	.LVL27:
 259:Drivers/STM32F0xx_HAL_Driver/Src/stm32f0xx_hal_gpio.c ****         temp &= ~(iocurrent);
 254              		.loc 1 259 9 is_stmt 1 view .LVU97
ARM GAS  /tmp/ccY1Uct9.s 			page 10


 255              		.loc 1 259 14 is_stmt 0 view .LVU98
 256 00a4 3240     		ands	r2, r6
 257              	.LVL28:
 260:Drivers/STM32F0xx_HAL_Driver/Src/stm32f0xx_hal_gpio.c ****         if ((GPIO_Init -> Mode & EXTI_IT) != 0x00u) {
 258              		.loc 1 260 9 is_stmt 1 view .LVU99
 259              		.loc 1 260 24 is_stmt 0 view .LVU100
 260 00a6 4C68     		ldr	r4, [r1, #4]
 261              		.loc 1 260 12 view .LVU101
 262 00a8 E403     		lsls	r4, r4, #15
 263 00aa 01D5     		bpl	.L11
 261:Drivers/STM32F0xx_HAL_Driver/Src/stm32f0xx_hal_gpio.c ****           temp |= iocurrent;
 264              		.loc 1 261 11 is_stmt 1 view .LVU102
 265              		.loc 1 261 16 is_stmt 0 view .LVU103
 266 00ac 2A00     		movs	r2, r5
 267              	.LVL29:
 268              		.loc 1 261 16 view .LVU104
 269 00ae 3243     		orrs	r2, r6
 270              	.LVL30:
 271              	.L11:
 262:Drivers/STM32F0xx_HAL_Driver/Src/stm32f0xx_hal_gpio.c ****         }
 263:Drivers/STM32F0xx_HAL_Driver/Src/stm32f0xx_hal_gpio.c ****         EXTI -> IMR = temp;
 272              		.loc 1 263 9 is_stmt 1 view .LVU105
 273              		.loc 1 263 21 is_stmt 0 view .LVU106
 274 00b0 314C     		ldr	r4, .L25+4
 275 00b2 2260     		str	r2, [r4]
 276              	.LVL31:
 277              	.L3:
 264:Drivers/STM32F0xx_HAL_Driver/Src/stm32f0xx_hal_gpio.c ****       }
 265:Drivers/STM32F0xx_HAL_Driver/Src/stm32f0xx_hal_gpio.c ****     }
 266:Drivers/STM32F0xx_HAL_Driver/Src/stm32f0xx_hal_gpio.c **** 
 267:Drivers/STM32F0xx_HAL_Driver/Src/stm32f0xx_hal_gpio.c ****     position++;
 278              		.loc 1 267 5 is_stmt 1 view .LVU107
 279              		.loc 1 267 13 is_stmt 0 view .LVU108
 280 00b4 0133     		adds	r3, r3, #1
 281              	.LVL32:
 282              	.L2:
 188:Drivers/STM32F0xx_HAL_Driver/Src/stm32f0xx_hal_gpio.c ****     iocurrent = (GPIO_Init -> Pin) & (1uL << position);
 283              		.loc 1 188 43 is_stmt 1 view .LVU109
 188:Drivers/STM32F0xx_HAL_Driver/Src/stm32f0xx_hal_gpio.c ****     iocurrent = (GPIO_Init -> Pin) & (1uL << position);
 284              		.loc 1 188 22 is_stmt 0 view .LVU110
 285 00b6 0C68     		ldr	r4, [r1]
 188:Drivers/STM32F0xx_HAL_Driver/Src/stm32f0xx_hal_gpio.c ****     iocurrent = (GPIO_Init -> Pin) & (1uL << position);
 286              		.loc 1 188 30 view .LVU111
 287 00b8 2200     		movs	r2, r4
 288 00ba DA40     		lsrs	r2, r2, r3
 188:Drivers/STM32F0xx_HAL_Driver/Src/stm32f0xx_hal_gpio.c ****     iocurrent = (GPIO_Init -> Pin) & (1uL << position);
 289              		.loc 1 188 43 view .LVU112
 290 00bc 57D0     		beq	.L21
 189:Drivers/STM32F0xx_HAL_Driver/Src/stm32f0xx_hal_gpio.c **** 
 291              		.loc 1 189 5 is_stmt 1 view .LVU113
 189:Drivers/STM32F0xx_HAL_Driver/Src/stm32f0xx_hal_gpio.c **** 
 292              		.loc 1 189 43 is_stmt 0 view .LVU114
 293 00be 0122     		movs	r2, #1
 294 00c0 9A40     		lsls	r2, r2, r3
 189:Drivers/STM32F0xx_HAL_Driver/Src/stm32f0xx_hal_gpio.c **** 
 295              		.loc 1 189 15 view .LVU115
 296 00c2 2500     		movs	r5, r4
ARM GAS  /tmp/ccY1Uct9.s 			page 11


 297 00c4 1540     		ands	r5, r2
 298              	.LVL33:
 191:Drivers/STM32F0xx_HAL_Driver/Src/stm32f0xx_hal_gpio.c ****       if (((GPIO_Init -> Mode & GPIO_MODE) == MODE_OUTPUT) || ((GPIO_Init -> Mode & GPIO_MODE) == M
 299              		.loc 1 191 5 is_stmt 1 view .LVU116
 191:Drivers/STM32F0xx_HAL_Driver/Src/stm32f0xx_hal_gpio.c ****       if (((GPIO_Init -> Mode & GPIO_MODE) == MODE_OUTPUT) || ((GPIO_Init -> Mode & GPIO_MODE) == M
 300              		.loc 1 191 8 is_stmt 0 view .LVU117
 301 00c6 1442     		tst	r4, r2
 302 00c8 F4D0     		beq	.L3
 192:Drivers/STM32F0xx_HAL_Driver/Src/stm32f0xx_hal_gpio.c ****         assert_param(IS_GPIO_SPEED(GPIO_Init -> Speed));
 303              		.loc 1 192 7 is_stmt 1 view .LVU118
 192:Drivers/STM32F0xx_HAL_Driver/Src/stm32f0xx_hal_gpio.c ****         assert_param(IS_GPIO_SPEED(GPIO_Init -> Speed));
 304              		.loc 1 192 23 is_stmt 0 view .LVU119
 305 00ca 4E68     		ldr	r6, [r1, #4]
 192:Drivers/STM32F0xx_HAL_Driver/Src/stm32f0xx_hal_gpio.c ****         assert_param(IS_GPIO_SPEED(GPIO_Init -> Speed));
 306              		.loc 1 192 31 view .LVU120
 307 00cc 0324     		movs	r4, #3
 308 00ce 3440     		ands	r4, r6
 192:Drivers/STM32F0xx_HAL_Driver/Src/stm32f0xx_hal_gpio.c ****         assert_param(IS_GPIO_SPEED(GPIO_Init -> Speed));
 309              		.loc 1 192 60 view .LVU121
 310 00d0 013C     		subs	r4, r4, #1
 192:Drivers/STM32F0xx_HAL_Driver/Src/stm32f0xx_hal_gpio.c ****         assert_param(IS_GPIO_SPEED(GPIO_Init -> Speed));
 311              		.loc 1 192 10 view .LVU122
 312 00d2 012C     		cmp	r4, #1
 313 00d4 98D9     		bls	.L22
 314              	.L4:
 205:Drivers/STM32F0xx_HAL_Driver/Src/stm32f0xx_hal_gpio.c ****         assert_param(IS_GPIO_PULL(GPIO_Init -> Pull));
 315              		.loc 1 205 7 is_stmt 1 view .LVU123
 205:Drivers/STM32F0xx_HAL_Driver/Src/stm32f0xx_hal_gpio.c ****         assert_param(IS_GPIO_PULL(GPIO_Init -> Pull));
 316              		.loc 1 205 22 is_stmt 0 view .LVU124
 317 00d6 4C68     		ldr	r4, [r1, #4]
 205:Drivers/STM32F0xx_HAL_Driver/Src/stm32f0xx_hal_gpio.c ****         assert_param(IS_GPIO_PULL(GPIO_Init -> Pull));
 318              		.loc 1 205 30 view .LVU125
 319 00d8 0322     		movs	r2, #3
 320 00da 2240     		ands	r2, r4
 205:Drivers/STM32F0xx_HAL_Driver/Src/stm32f0xx_hal_gpio.c ****         assert_param(IS_GPIO_PULL(GPIO_Init -> Pull));
 321              		.loc 1 205 10 view .LVU126
 322 00dc 032A     		cmp	r2, #3
 323 00de 09D0     		beq	.L5
 206:Drivers/STM32F0xx_HAL_Driver/Src/stm32f0xx_hal_gpio.c **** 
 324              		.loc 1 206 9 is_stmt 1 view .LVU127
 208:Drivers/STM32F0xx_HAL_Driver/Src/stm32f0xx_hal_gpio.c ****         temp &= ~(GPIO_PUPDR_PUPDR0 << (position * 2u));
 325              		.loc 1 208 9 view .LVU128
 208:Drivers/STM32F0xx_HAL_Driver/Src/stm32f0xx_hal_gpio.c ****         temp &= ~(GPIO_PUPDR_PUPDR0 << (position * 2u));
 326              		.loc 1 208 14 is_stmt 0 view .LVU129
 327 00e0 C468     		ldr	r4, [r0, #12]
 328              	.LVL34:
 209:Drivers/STM32F0xx_HAL_Driver/Src/stm32f0xx_hal_gpio.c ****         temp |= (((GPIO_Init -> Pull) >> OUTPUT_TYPE_Pos) << position);
 329              		.loc 1 209 9 is_stmt 1 view .LVU130
 209:Drivers/STM32F0xx_HAL_Driver/Src/stm32f0xx_hal_gpio.c ****         temp |= (((GPIO_Init -> Pull) >> OUTPUT_TYPE_Pos) << position);
 330              		.loc 1 209 50 is_stmt 0 view .LVU131
 331 00e2 5E00     		lsls	r6, r3, #1
 209:Drivers/STM32F0xx_HAL_Driver/Src/stm32f0xx_hal_gpio.c ****         temp |= (((GPIO_Init -> Pull) >> OUTPUT_TYPE_Pos) << position);
 332              		.loc 1 209 37 view .LVU132
 333 00e4 0322     		movs	r2, #3
 334 00e6 B240     		lsls	r2, r2, r6
 209:Drivers/STM32F0xx_HAL_Driver/Src/stm32f0xx_hal_gpio.c ****         temp |= (((GPIO_Init -> Pull) >> OUTPUT_TYPE_Pos) << position);
 335              		.loc 1 209 14 view .LVU133
ARM GAS  /tmp/ccY1Uct9.s 			page 12


 336 00e8 9443     		bics	r4, r2
 337              	.LVL35:
 210:Drivers/STM32F0xx_HAL_Driver/Src/stm32f0xx_hal_gpio.c ****         GPIOx -> PUPDR = temp;
 338              		.loc 1 210 9 is_stmt 1 view .LVU134
 210:Drivers/STM32F0xx_HAL_Driver/Src/stm32f0xx_hal_gpio.c ****         GPIOx -> PUPDR = temp;
 339              		.loc 1 210 30 is_stmt 0 view .LVU135
 340 00ea 8A68     		ldr	r2, [r1, #8]
 210:Drivers/STM32F0xx_HAL_Driver/Src/stm32f0xx_hal_gpio.c ****         GPIOx -> PUPDR = temp;
 341              		.loc 1 210 39 view .LVU136
 342 00ec 1209     		lsrs	r2, r2, #4
 210:Drivers/STM32F0xx_HAL_Driver/Src/stm32f0xx_hal_gpio.c ****         GPIOx -> PUPDR = temp;
 343              		.loc 1 210 59 view .LVU137
 344 00ee 9A40     		lsls	r2, r2, r3
 210:Drivers/STM32F0xx_HAL_Driver/Src/stm32f0xx_hal_gpio.c ****         GPIOx -> PUPDR = temp;
 345              		.loc 1 210 14 view .LVU138
 346 00f0 2243     		orrs	r2, r4
 347              	.LVL36:
 211:Drivers/STM32F0xx_HAL_Driver/Src/stm32f0xx_hal_gpio.c ****       }
 348              		.loc 1 211 9 is_stmt 1 view .LVU139
 211:Drivers/STM32F0xx_HAL_Driver/Src/stm32f0xx_hal_gpio.c ****       }
 349              		.loc 1 211 24 is_stmt 0 view .LVU140
 350 00f2 C260     		str	r2, [r0, #12]
 351              	.LVL37:
 352              	.L5:
 214:Drivers/STM32F0xx_HAL_Driver/Src/stm32f0xx_hal_gpio.c ****         assert_param(IS_GPIO_AF_INSTANCE(GPIOx));
 353              		.loc 1 214 7 is_stmt 1 view .LVU141
 214:Drivers/STM32F0xx_HAL_Driver/Src/stm32f0xx_hal_gpio.c ****         assert_param(IS_GPIO_AF_INSTANCE(GPIOx));
 354              		.loc 1 214 22 is_stmt 0 view .LVU142
 355 00f4 4C68     		ldr	r4, [r1, #4]
 214:Drivers/STM32F0xx_HAL_Driver/Src/stm32f0xx_hal_gpio.c ****         assert_param(IS_GPIO_AF_INSTANCE(GPIOx));
 356              		.loc 1 214 30 view .LVU143
 357 00f6 0322     		movs	r2, #3
 358 00f8 2240     		ands	r2, r4
 214:Drivers/STM32F0xx_HAL_Driver/Src/stm32f0xx_hal_gpio.c ****         assert_param(IS_GPIO_AF_INSTANCE(GPIOx));
 359              		.loc 1 214 10 view .LVU144
 360 00fa 022A     		cmp	r2, #2
 361 00fc 97D0     		beq	.L23
 362              	.L6:
 224:Drivers/STM32F0xx_HAL_Driver/Src/stm32f0xx_hal_gpio.c ****       temp &= ~(GPIO_MODER_MODER0 << (position * 2u));
 363              		.loc 1 224 7 is_stmt 1 view .LVU145
 224:Drivers/STM32F0xx_HAL_Driver/Src/stm32f0xx_hal_gpio.c ****       temp &= ~(GPIO_MODER_MODER0 << (position * 2u));
 364              		.loc 1 224 12 is_stmt 0 view .LVU146
 365 00fe 0468     		ldr	r4, [r0]
 366              	.LVL38:
 225:Drivers/STM32F0xx_HAL_Driver/Src/stm32f0xx_hal_gpio.c ****       temp |= ((GPIO_Init -> Mode & GPIO_MODE) << (position * 2u));
 367              		.loc 1 225 7 is_stmt 1 view .LVU147
 225:Drivers/STM32F0xx_HAL_Driver/Src/stm32f0xx_hal_gpio.c ****       temp |= ((GPIO_Init -> Mode & GPIO_MODE) << (position * 2u));
 368              		.loc 1 225 48 is_stmt 0 view .LVU148
 369 0100 5E00     		lsls	r6, r3, #1
 225:Drivers/STM32F0xx_HAL_Driver/Src/stm32f0xx_hal_gpio.c ****       temp |= ((GPIO_Init -> Mode & GPIO_MODE) << (position * 2u));
 370              		.loc 1 225 35 view .LVU149
 371 0102 0322     		movs	r2, #3
 372 0104 1700     		movs	r7, r2
 373 0106 B740     		lsls	r7, r7, r6
 225:Drivers/STM32F0xx_HAL_Driver/Src/stm32f0xx_hal_gpio.c ****       temp |= ((GPIO_Init -> Mode & GPIO_MODE) << (position * 2u));
 374              		.loc 1 225 12 view .LVU150
 375 0108 BC43     		bics	r4, r7
ARM GAS  /tmp/ccY1Uct9.s 			page 13


 376              	.LVL39:
 226:Drivers/STM32F0xx_HAL_Driver/Src/stm32f0xx_hal_gpio.c ****       GPIOx -> MODER = temp;
 377              		.loc 1 226 7 is_stmt 1 view .LVU151
 226:Drivers/STM32F0xx_HAL_Driver/Src/stm32f0xx_hal_gpio.c ****       GPIOx -> MODER = temp;
 378              		.loc 1 226 27 is_stmt 0 view .LVU152
 379 010a 4F68     		ldr	r7, [r1, #4]
 226:Drivers/STM32F0xx_HAL_Driver/Src/stm32f0xx_hal_gpio.c ****       GPIOx -> MODER = temp;
 380              		.loc 1 226 35 view .LVU153
 381 010c 3A40     		ands	r2, r7
 226:Drivers/STM32F0xx_HAL_Driver/Src/stm32f0xx_hal_gpio.c ****       GPIOx -> MODER = temp;
 382              		.loc 1 226 48 view .LVU154
 383 010e B240     		lsls	r2, r2, r6
 226:Drivers/STM32F0xx_HAL_Driver/Src/stm32f0xx_hal_gpio.c ****       GPIOx -> MODER = temp;
 384              		.loc 1 226 12 view .LVU155
 385 0110 2243     		orrs	r2, r4
 386              	.LVL40:
 227:Drivers/STM32F0xx_HAL_Driver/Src/stm32f0xx_hal_gpio.c **** 
 387              		.loc 1 227 7 is_stmt 1 view .LVU156
 227:Drivers/STM32F0xx_HAL_Driver/Src/stm32f0xx_hal_gpio.c **** 
 388              		.loc 1 227 22 is_stmt 0 view .LVU157
 389 0112 0260     		str	r2, [r0]
 229:Drivers/STM32F0xx_HAL_Driver/Src/stm32f0xx_hal_gpio.c ****         __HAL_RCC_SYSCFG_CLK_ENABLE();
 390              		.loc 1 229 7 is_stmt 1 view .LVU158
 229:Drivers/STM32F0xx_HAL_Driver/Src/stm32f0xx_hal_gpio.c ****         __HAL_RCC_SYSCFG_CLK_ENABLE();
 391              		.loc 1 229 22 is_stmt 0 view .LVU159
 392 0114 4C68     		ldr	r4, [r1, #4]
 229:Drivers/STM32F0xx_HAL_Driver/Src/stm32f0xx_hal_gpio.c ****         __HAL_RCC_SYSCFG_CLK_ENABLE();
 393              		.loc 1 229 30 view .LVU160
 394 0116 C022     		movs	r2, #192
 395              	.LVL41:
 229:Drivers/STM32F0xx_HAL_Driver/Src/stm32f0xx_hal_gpio.c ****         __HAL_RCC_SYSCFG_CLK_ENABLE();
 396              		.loc 1 229 30 view .LVU161
 397 0118 9202     		lsls	r2, r2, #10
 229:Drivers/STM32F0xx_HAL_Driver/Src/stm32f0xx_hal_gpio.c ****         __HAL_RCC_SYSCFG_CLK_ENABLE();
 398              		.loc 1 229 10 view .LVU162
 399 011a 1442     		tst	r4, r2
 400 011c CAD0     		beq	.L3
 230:Drivers/STM32F0xx_HAL_Driver/Src/stm32f0xx_hal_gpio.c **** 
 401              		.loc 1 230 9 is_stmt 1 view .LVU163
 402              	.LBB2:
 230:Drivers/STM32F0xx_HAL_Driver/Src/stm32f0xx_hal_gpio.c **** 
 403              		.loc 1 230 9 view .LVU164
 230:Drivers/STM32F0xx_HAL_Driver/Src/stm32f0xx_hal_gpio.c **** 
 404              		.loc 1 230 9 view .LVU165
 405 011e 174C     		ldr	r4, .L25+8
 406 0120 A669     		ldr	r6, [r4, #24]
 407 0122 0122     		movs	r2, #1
 408 0124 1643     		orrs	r6, r2
 409 0126 A661     		str	r6, [r4, #24]
 410              	.LVL42:
 230:Drivers/STM32F0xx_HAL_Driver/Src/stm32f0xx_hal_gpio.c **** 
 411              		.loc 1 230 9 view .LVU166
 412 0128 A469     		ldr	r4, [r4, #24]
 413 012a 2240     		ands	r2, r4
 414 012c 0192     		str	r2, [sp, #4]
 230:Drivers/STM32F0xx_HAL_Driver/Src/stm32f0xx_hal_gpio.c **** 
 415              		.loc 1 230 9 view .LVU167
ARM GAS  /tmp/ccY1Uct9.s 			page 14


 416 012e 019A     		ldr	r2, [sp, #4]
 417              	.LBE2:
 230:Drivers/STM32F0xx_HAL_Driver/Src/stm32f0xx_hal_gpio.c **** 
 418              		.loc 1 230 9 view .LVU168
 232:Drivers/STM32F0xx_HAL_Driver/Src/stm32f0xx_hal_gpio.c ****         temp &= ~(0x0FuL << (4u * (position & 0x03u)));
 419              		.loc 1 232 9 view .LVU169
 232:Drivers/STM32F0xx_HAL_Driver/Src/stm32f0xx_hal_gpio.c ****         temp &= ~(0x0FuL << (4u * (position & 0x03u)));
 420              		.loc 1 232 42 is_stmt 0 view .LVU170
 421 0130 9A08     		lsrs	r2, r3, #2
 232:Drivers/STM32F0xx_HAL_Driver/Src/stm32f0xx_hal_gpio.c ****         temp &= ~(0x0FuL << (4u * (position & 0x03u)));
 422              		.loc 1 232 14 view .LVU171
 423 0132 941C     		adds	r4, r2, #2
 424 0134 A400     		lsls	r4, r4, #2
 425 0136 0F4E     		ldr	r6, .L25
 426 0138 A759     		ldr	r7, [r4, r6]
 427              	.LVL43:
 233:Drivers/STM32F0xx_HAL_Driver/Src/stm32f0xx_hal_gpio.c ****         temp |= (GPIO_GET_INDEX(GPIOx) << (4u * (position & 0x03u)));
 428              		.loc 1 233 9 is_stmt 1 view .LVU172
 233:Drivers/STM32F0xx_HAL_Driver/Src/stm32f0xx_hal_gpio.c ****         temp |= (GPIO_GET_INDEX(GPIOx) << (4u * (position & 0x03u)));
 429              		.loc 1 233 45 is_stmt 0 view .LVU173
 430 013a 0324     		movs	r4, #3
 431 013c 1C40     		ands	r4, r3
 233:Drivers/STM32F0xx_HAL_Driver/Src/stm32f0xx_hal_gpio.c ****         temp |= (GPIO_GET_INDEX(GPIOx) << (4u * (position & 0x03u)));
 432              		.loc 1 233 33 view .LVU174
 433 013e A400     		lsls	r4, r4, #2
 233:Drivers/STM32F0xx_HAL_Driver/Src/stm32f0xx_hal_gpio.c ****         temp |= (GPIO_GET_INDEX(GPIOx) << (4u * (position & 0x03u)));
 434              		.loc 1 233 26 view .LVU175
 435 0140 0F26     		movs	r6, #15
 436 0142 A640     		lsls	r6, r6, r4
 233:Drivers/STM32F0xx_HAL_Driver/Src/stm32f0xx_hal_gpio.c ****         temp |= (GPIO_GET_INDEX(GPIOx) << (4u * (position & 0x03u)));
 437              		.loc 1 233 14 view .LVU176
 438 0144 B743     		bics	r7, r6
 439              	.LVL44:
 234:Drivers/STM32F0xx_HAL_Driver/Src/stm32f0xx_hal_gpio.c ****         SYSCFG -> EXTICR[position >> 2u] = temp;
 440              		.loc 1 234 9 is_stmt 1 view .LVU177
 234:Drivers/STM32F0xx_HAL_Driver/Src/stm32f0xx_hal_gpio.c ****         SYSCFG -> EXTICR[position >> 2u] = temp;
 441              		.loc 1 234 18 is_stmt 0 view .LVU178
 442 0146 9026     		movs	r6, #144
 443 0148 F605     		lsls	r6, r6, #23
 444 014a B042     		cmp	r0, r6
 445 014c 81D0     		beq	.L13
 234:Drivers/STM32F0xx_HAL_Driver/Src/stm32f0xx_hal_gpio.c ****         SYSCFG -> EXTICR[position >> 2u] = temp;
 446              		.loc 1 234 18 discriminator 1 view .LVU179
 447 014e 0C4E     		ldr	r6, .L25+12
 448 0150 B042     		cmp	r0, r6
 449 0152 08D0     		beq	.L14
 234:Drivers/STM32F0xx_HAL_Driver/Src/stm32f0xx_hal_gpio.c ****         SYSCFG -> EXTICR[position >> 2u] = temp;
 450              		.loc 1 234 18 discriminator 3 view .LVU180
 451 0154 0B4E     		ldr	r6, .L25+16
 452 0156 B042     		cmp	r0, r6
 453 0158 07D0     		beq	.L15
 234:Drivers/STM32F0xx_HAL_Driver/Src/stm32f0xx_hal_gpio.c ****         SYSCFG -> EXTICR[position >> 2u] = temp;
 454              		.loc 1 234 18 discriminator 5 view .LVU181
 455 015a 0B4E     		ldr	r6, .L25+20
 456 015c B042     		cmp	r0, r6
 457 015e 00D1     		bne	.LCB395
 458 0160 75E7     		b	.L24	@long jump
ARM GAS  /tmp/ccY1Uct9.s 			page 15


 459              	.LCB395:
 234:Drivers/STM32F0xx_HAL_Driver/Src/stm32f0xx_hal_gpio.c ****         SYSCFG -> EXTICR[position >> 2u] = temp;
 460              		.loc 1 234 18 discriminator 8 view .LVU182
 461 0162 0526     		movs	r6, #5
 462 0164 76E7     		b	.L7
 463              	.L14:
 234:Drivers/STM32F0xx_HAL_Driver/Src/stm32f0xx_hal_gpio.c ****         SYSCFG -> EXTICR[position >> 2u] = temp;
 464              		.loc 1 234 18 discriminator 4 view .LVU183
 465 0166 0126     		movs	r6, #1
 466 0168 74E7     		b	.L7
 467              	.L15:
 234:Drivers/STM32F0xx_HAL_Driver/Src/stm32f0xx_hal_gpio.c ****         SYSCFG -> EXTICR[position >> 2u] = temp;
 468              		.loc 1 234 18 discriminator 6 view .LVU184
 469 016a 0226     		movs	r6, #2
 470 016c 72E7     		b	.L7
 471              	.LVL45:
 472              	.L21:
 268:Drivers/STM32F0xx_HAL_Driver/Src/stm32f0xx_hal_gpio.c ****   }
 269:Drivers/STM32F0xx_HAL_Driver/Src/stm32f0xx_hal_gpio.c **** }
 473              		.loc 1 269 1 view .LVU185
 474 016e 03B0     		add	sp, sp, #12
 475              		@ sp needed
 476 0170 F0BD     		pop	{r4, r5, r6, r7, pc}
 477              	.L26:
 478 0172 C046     		.align	2
 479              	.L25:
 480 0174 00000140 		.word	1073807360
 481 0178 00040140 		.word	1073808384
 482 017c 00100240 		.word	1073876992
 483 0180 00040048 		.word	1207960576
 484 0184 00080048 		.word	1207961600
 485 0188 000C0048 		.word	1207962624
 486              		.cfi_endproc
 487              	.LFE40:
 489              		.section	.text.HAL_GPIO_DeInit,"ax",%progbits
 490              		.align	1
 491              		.global	HAL_GPIO_DeInit
 492              		.syntax unified
 493              		.code	16
 494              		.thumb_func
 496              	HAL_GPIO_DeInit:
 497              	.LVL46:
 498              	.LFB41:
 270:Drivers/STM32F0xx_HAL_Driver/Src/stm32f0xx_hal_gpio.c **** 
 271:Drivers/STM32F0xx_HAL_Driver/Src/stm32f0xx_hal_gpio.c **** /**
 272:Drivers/STM32F0xx_HAL_Driver/Src/stm32f0xx_hal_gpio.c ****  * @brief  De-initialize the GPIOx peripheral registers to their default reset
 273:Drivers/STM32F0xx_HAL_Driver/Src/stm32f0xx_hal_gpio.c ****  * values.
 274:Drivers/STM32F0xx_HAL_Driver/Src/stm32f0xx_hal_gpio.c ****  * @param  GPIOx where x can be (A..F) to select the GPIO peripheral for STM32F0
 275:Drivers/STM32F0xx_HAL_Driver/Src/stm32f0xx_hal_gpio.c ****  * family
 276:Drivers/STM32F0xx_HAL_Driver/Src/stm32f0xx_hal_gpio.c ****  * @param  GPIO_Pin specifies the port bit to be written.
 277:Drivers/STM32F0xx_HAL_Driver/Src/stm32f0xx_hal_gpio.c ****  *         This parameter can be one of GPIO_PIN_x where x can be (0..15).
 278:Drivers/STM32F0xx_HAL_Driver/Src/stm32f0xx_hal_gpio.c ****  * @retval None
 279:Drivers/STM32F0xx_HAL_Driver/Src/stm32f0xx_hal_gpio.c ****  */
 280:Drivers/STM32F0xx_HAL_Driver/Src/stm32f0xx_hal_gpio.c **** void HAL_GPIO_DeInit(GPIO_TypeDef *GPIOx, uint32_t GPIO_Pin) {
 499              		.loc 1 280 62 is_stmt 1 view -0
 500              		.cfi_startproc
 501              		@ args = 0, pretend = 0, frame = 0
ARM GAS  /tmp/ccY1Uct9.s 			page 16


 502              		@ frame_needed = 0, uses_anonymous_args = 0
 503              		.loc 1 280 62 is_stmt 0 view .LVU187
 504 0000 F0B5     		push	{r4, r5, r6, r7, lr}
 505              	.LCFI2:
 506              		.cfi_def_cfa_offset 20
 507              		.cfi_offset 4, -20
 508              		.cfi_offset 5, -16
 509              		.cfi_offset 6, -12
 510              		.cfi_offset 7, -8
 511              		.cfi_offset 14, -4
 512 0002 CE46     		mov	lr, r9
 513 0004 4746     		mov	r7, r8
 514 0006 80B5     		push	{r7, lr}
 515              	.LCFI3:
 516              		.cfi_def_cfa_offset 28
 517              		.cfi_offset 8, -28
 518              		.cfi_offset 9, -24
 519 0008 8946     		mov	r9, r1
 281:Drivers/STM32F0xx_HAL_Driver/Src/stm32f0xx_hal_gpio.c ****   uint32_t position = 0x00u;
 520              		.loc 1 281 3 is_stmt 1 view .LVU188
 521              	.LVL47:
 282:Drivers/STM32F0xx_HAL_Driver/Src/stm32f0xx_hal_gpio.c ****   uint32_t iocurrent;
 522              		.loc 1 282 3 view .LVU189
 283:Drivers/STM32F0xx_HAL_Driver/Src/stm32f0xx_hal_gpio.c ****   uint32_t tmp;
 523              		.loc 1 283 3 view .LVU190
 284:Drivers/STM32F0xx_HAL_Driver/Src/stm32f0xx_hal_gpio.c **** 
 285:Drivers/STM32F0xx_HAL_Driver/Src/stm32f0xx_hal_gpio.c ****   /* Check the parameters */
 286:Drivers/STM32F0xx_HAL_Driver/Src/stm32f0xx_hal_gpio.c ****   assert_param(IS_GPIO_ALL_INSTANCE(GPIOx));
 524              		.loc 1 286 3 view .LVU191
 287:Drivers/STM32F0xx_HAL_Driver/Src/stm32f0xx_hal_gpio.c ****   assert_param(IS_GPIO_PIN(GPIO_Pin));
 525              		.loc 1 287 3 view .LVU192
 288:Drivers/STM32F0xx_HAL_Driver/Src/stm32f0xx_hal_gpio.c **** 
 289:Drivers/STM32F0xx_HAL_Driver/Src/stm32f0xx_hal_gpio.c ****   /* Configure the port pins */
 290:Drivers/STM32F0xx_HAL_Driver/Src/stm32f0xx_hal_gpio.c ****   while ((GPIO_Pin >> position) != 0x00u) {
 526              		.loc 1 290 3 view .LVU193
 281:Drivers/STM32F0xx_HAL_Driver/Src/stm32f0xx_hal_gpio.c ****   uint32_t iocurrent;
 527              		.loc 1 281 12 is_stmt 0 view .LVU194
 528 000a 0023     		movs	r3, #0
 529              		.loc 1 290 9 view .LVU195
 530 000c 23E0     		b	.L28
 531              	.LVL48:
 532              	.L39:
 291:Drivers/STM32F0xx_HAL_Driver/Src/stm32f0xx_hal_gpio.c ****     /* Get current io position */
 292:Drivers/STM32F0xx_HAL_Driver/Src/stm32f0xx_hal_gpio.c ****     iocurrent = (GPIO_Pin) & (1uL << position);
 293:Drivers/STM32F0xx_HAL_Driver/Src/stm32f0xx_hal_gpio.c **** 
 294:Drivers/STM32F0xx_HAL_Driver/Src/stm32f0xx_hal_gpio.c ****     if (iocurrent != 0x00u) {
 295:Drivers/STM32F0xx_HAL_Driver/Src/stm32f0xx_hal_gpio.c ****       /*------------------------- EXTI Mode Configuration --------------------*/
 296:Drivers/STM32F0xx_HAL_Driver/Src/stm32f0xx_hal_gpio.c ****       /* Clear the External Interrupt or Event for the current IO */
 297:Drivers/STM32F0xx_HAL_Driver/Src/stm32f0xx_hal_gpio.c **** 
 298:Drivers/STM32F0xx_HAL_Driver/Src/stm32f0xx_hal_gpio.c ****       tmp = SYSCFG->EXTICR[position >> 2u];
 299:Drivers/STM32F0xx_HAL_Driver/Src/stm32f0xx_hal_gpio.c ****       tmp &= (0x0FuL << (4u * (position & 0x03u)));
 300:Drivers/STM32F0xx_HAL_Driver/Src/stm32f0xx_hal_gpio.c ****       if (tmp == (GPIO_GET_INDEX(GPIOx) << (4u * (position & 0x03u)))) {
 533              		.loc 1 300 19 discriminator 7 view .LVU196
 534 000e 0321     		movs	r1, #3
 535 0010 8846     		mov	r8, r1
 536 0012 01E0     		b	.L30
 537              	.L33:
ARM GAS  /tmp/ccY1Uct9.s 			page 17


 538              		.loc 1 300 19 discriminator 2 view .LVU197
 539 0014 0021     		movs	r1, #0
 540 0016 8846     		mov	r8, r1
 541              	.L30:
 542              		.loc 1 300 41 discriminator 16 view .LVU198
 543 0018 4146     		mov	r1, r8
 544 001a A140     		lsls	r1, r1, r4
 545              		.loc 1 300 10 discriminator 16 view .LVU199
 546 001c A942     		cmp	r1, r5
 547 001e 46D0     		beq	.L37
 548              	.LVL49:
 549              	.L31:
 301:Drivers/STM32F0xx_HAL_Driver/Src/stm32f0xx_hal_gpio.c ****         /* Clear EXTI line configuration */
 302:Drivers/STM32F0xx_HAL_Driver/Src/stm32f0xx_hal_gpio.c ****         EXTI->IMR &= ~((uint32_t)iocurrent);
 303:Drivers/STM32F0xx_HAL_Driver/Src/stm32f0xx_hal_gpio.c ****         EXTI->EMR &= ~((uint32_t)iocurrent);
 304:Drivers/STM32F0xx_HAL_Driver/Src/stm32f0xx_hal_gpio.c **** 
 305:Drivers/STM32F0xx_HAL_Driver/Src/stm32f0xx_hal_gpio.c ****         /* Clear Rising Falling edge configuration */
 306:Drivers/STM32F0xx_HAL_Driver/Src/stm32f0xx_hal_gpio.c ****         EXTI->FTSR &= ~((uint32_t)iocurrent);
 307:Drivers/STM32F0xx_HAL_Driver/Src/stm32f0xx_hal_gpio.c ****         EXTI->RTSR &= ~((uint32_t)iocurrent);
 308:Drivers/STM32F0xx_HAL_Driver/Src/stm32f0xx_hal_gpio.c **** 
 309:Drivers/STM32F0xx_HAL_Driver/Src/stm32f0xx_hal_gpio.c ****         /* Configure the External Interrupt or event for the current IO */
 310:Drivers/STM32F0xx_HAL_Driver/Src/stm32f0xx_hal_gpio.c ****         tmp = 0x0FuL << (4u * (position & 0x03u));
 311:Drivers/STM32F0xx_HAL_Driver/Src/stm32f0xx_hal_gpio.c ****         SYSCFG->EXTICR[position >> 2u] &= ~tmp;
 312:Drivers/STM32F0xx_HAL_Driver/Src/stm32f0xx_hal_gpio.c ****       }
 313:Drivers/STM32F0xx_HAL_Driver/Src/stm32f0xx_hal_gpio.c **** 
 314:Drivers/STM32F0xx_HAL_Driver/Src/stm32f0xx_hal_gpio.c ****       /*------------------------- GPIO Mode Configuration --------------------*/
 315:Drivers/STM32F0xx_HAL_Driver/Src/stm32f0xx_hal_gpio.c ****       /* Configure IO Direction in Input Floating Mode */
 316:Drivers/STM32F0xx_HAL_Driver/Src/stm32f0xx_hal_gpio.c ****       GPIOx->MODER &= ~(GPIO_MODER_MODER0 << (position * 2u));
 550              		.loc 1 316 7 is_stmt 1 view .LVU200
 551              		.loc 1 316 12 is_stmt 0 view .LVU201
 552 0020 0468     		ldr	r4, [r0]
 553              		.loc 1 316 56 view .LVU202
 554 0022 5E00     		lsls	r6, r3, #1
 555              		.loc 1 316 43 view .LVU203
 556 0024 0325     		movs	r5, #3
 557 0026 B540     		lsls	r5, r5, r6
 558              		.loc 1 316 20 view .LVU204
 559 0028 AC43     		bics	r4, r5
 560 002a 0460     		str	r4, [r0]
 317:Drivers/STM32F0xx_HAL_Driver/Src/stm32f0xx_hal_gpio.c **** 
 318:Drivers/STM32F0xx_HAL_Driver/Src/stm32f0xx_hal_gpio.c ****       /* Configure the default Alternate Function in current IO */
 319:Drivers/STM32F0xx_HAL_Driver/Src/stm32f0xx_hal_gpio.c ****       GPIOx->AFR[position >> 3u] &=
 561              		.loc 1 319 7 is_stmt 1 view .LVU205
 562              		.loc 1 319 17 is_stmt 0 view .LVU206
 563 002c DC08     		lsrs	r4, r3, #3
 564 002e 0834     		adds	r4, r4, #8
 565 0030 A400     		lsls	r4, r4, #2
 566 0032 2758     		ldr	r7, [r4, r0]
 320:Drivers/STM32F0xx_HAL_Driver/Src/stm32f0xx_hal_gpio.c ****           ~(0xFu << ((uint32_t)(position & 0x07u) * 4u));
 567              		.loc 1 320 22 view .LVU207
 568 0034 0726     		movs	r6, #7
 569 0036 1E40     		ands	r6, r3
 570              		.loc 1 320 51 view .LVU208
 571 0038 B600     		lsls	r6, r6, #2
 572              		.loc 1 320 18 view .LVU209
 573 003a 0F21     		movs	r1, #15
 574 003c B140     		lsls	r1, r1, r6
ARM GAS  /tmp/ccY1Uct9.s 			page 18


 319:Drivers/STM32F0xx_HAL_Driver/Src/stm32f0xx_hal_gpio.c ****           ~(0xFu << ((uint32_t)(position & 0x07u) * 4u));
 575              		.loc 1 319 34 view .LVU210
 576 003e 8F43     		bics	r7, r1
 577 0040 2750     		str	r7, [r4, r0]
 321:Drivers/STM32F0xx_HAL_Driver/Src/stm32f0xx_hal_gpio.c **** 
 322:Drivers/STM32F0xx_HAL_Driver/Src/stm32f0xx_hal_gpio.c ****       /* Deactivate the Pull-up and Pull-down resistor for the current IO */
 323:Drivers/STM32F0xx_HAL_Driver/Src/stm32f0xx_hal_gpio.c ****       GPIOx->PUPDR &= ~(GPIO_PUPDR_PUPDR0 << (position * 2u));
 578              		.loc 1 323 7 is_stmt 1 view .LVU211
 579              		.loc 1 323 12 is_stmt 0 view .LVU212
 580 0042 C468     		ldr	r4, [r0, #12]
 581              		.loc 1 323 20 view .LVU213
 582 0044 AC43     		bics	r4, r5
 583 0046 C460     		str	r4, [r0, #12]
 324:Drivers/STM32F0xx_HAL_Driver/Src/stm32f0xx_hal_gpio.c **** 
 325:Drivers/STM32F0xx_HAL_Driver/Src/stm32f0xx_hal_gpio.c ****       /* Configure the default value IO Output Type */
 326:Drivers/STM32F0xx_HAL_Driver/Src/stm32f0xx_hal_gpio.c ****       GPIOx->OTYPER &= ~(GPIO_OTYPER_OT_0 << position);
 584              		.loc 1 326 7 is_stmt 1 view .LVU214
 585              		.loc 1 326 12 is_stmt 0 view .LVU215
 586 0048 4468     		ldr	r4, [r0, #4]
 587              		.loc 1 326 21 view .LVU216
 588 004a 9443     		bics	r4, r2
 589 004c 4460     		str	r4, [r0, #4]
 327:Drivers/STM32F0xx_HAL_Driver/Src/stm32f0xx_hal_gpio.c **** 
 328:Drivers/STM32F0xx_HAL_Driver/Src/stm32f0xx_hal_gpio.c ****       /* Configure the default value for IO Speed */
 329:Drivers/STM32F0xx_HAL_Driver/Src/stm32f0xx_hal_gpio.c ****       GPIOx->OSPEEDR &= ~(GPIO_OSPEEDER_OSPEEDR0 << (position * 2u));
 590              		.loc 1 329 7 is_stmt 1 view .LVU217
 591              		.loc 1 329 12 is_stmt 0 view .LVU218
 592 004e 8268     		ldr	r2, [r0, #8]
 593              		.loc 1 329 22 view .LVU219
 594 0050 AA43     		bics	r2, r5
 595 0052 8260     		str	r2, [r0, #8]
 596              	.L29:
 330:Drivers/STM32F0xx_HAL_Driver/Src/stm32f0xx_hal_gpio.c ****     }
 331:Drivers/STM32F0xx_HAL_Driver/Src/stm32f0xx_hal_gpio.c **** 
 332:Drivers/STM32F0xx_HAL_Driver/Src/stm32f0xx_hal_gpio.c ****     position++;
 597              		.loc 1 332 5 is_stmt 1 view .LVU220
 598              		.loc 1 332 13 is_stmt 0 view .LVU221
 599 0054 0133     		adds	r3, r3, #1
 600              	.LVL50:
 601              	.L28:
 290:Drivers/STM32F0xx_HAL_Driver/Src/stm32f0xx_hal_gpio.c ****     /* Get current io position */
 602              		.loc 1 290 33 is_stmt 1 view .LVU222
 290:Drivers/STM32F0xx_HAL_Driver/Src/stm32f0xx_hal_gpio.c ****     /* Get current io position */
 603              		.loc 1 290 20 is_stmt 0 view .LVU223
 604 0056 4A46     		mov	r2, r9
 605 0058 DA40     		lsrs	r2, r2, r3
 290:Drivers/STM32F0xx_HAL_Driver/Src/stm32f0xx_hal_gpio.c ****     /* Get current io position */
 606              		.loc 1 290 33 view .LVU224
 607 005a 3DD0     		beq	.L38
 292:Drivers/STM32F0xx_HAL_Driver/Src/stm32f0xx_hal_gpio.c **** 
 608              		.loc 1 292 5 is_stmt 1 view .LVU225
 292:Drivers/STM32F0xx_HAL_Driver/Src/stm32f0xx_hal_gpio.c **** 
 609              		.loc 1 292 35 is_stmt 0 view .LVU226
 610 005c 0122     		movs	r2, #1
 611 005e 9A40     		lsls	r2, r2, r3
 292:Drivers/STM32F0xx_HAL_Driver/Src/stm32f0xx_hal_gpio.c **** 
 612              		.loc 1 292 15 view .LVU227
ARM GAS  /tmp/ccY1Uct9.s 			page 19


 613 0060 4C46     		mov	r4, r9
 614 0062 1440     		ands	r4, r2
 615 0064 A446     		mov	ip, r4
 616              	.LVL51:
 294:Drivers/STM32F0xx_HAL_Driver/Src/stm32f0xx_hal_gpio.c ****       /*------------------------- EXTI Mode Configuration --------------------*/
 617              		.loc 1 294 5 is_stmt 1 view .LVU228
 294:Drivers/STM32F0xx_HAL_Driver/Src/stm32f0xx_hal_gpio.c ****       /*------------------------- EXTI Mode Configuration --------------------*/
 618              		.loc 1 294 8 is_stmt 0 view .LVU229
 619 0066 4946     		mov	r1, r9
 620 0068 1142     		tst	r1, r2
 621 006a F3D0     		beq	.L29
 622              	.LVL52:
 298:Drivers/STM32F0xx_HAL_Driver/Src/stm32f0xx_hal_gpio.c ****       tmp &= (0x0FuL << (4u * (position & 0x03u)));
 623              		.loc 1 298 7 is_stmt 1 view .LVU230
 298:Drivers/STM32F0xx_HAL_Driver/Src/stm32f0xx_hal_gpio.c ****       tmp &= (0x0FuL << (4u * (position & 0x03u)));
 624              		.loc 1 298 37 is_stmt 0 view .LVU231
 625 006c 9F08     		lsrs	r7, r3, #2
 298:Drivers/STM32F0xx_HAL_Driver/Src/stm32f0xx_hal_gpio.c ****       tmp &= (0x0FuL << (4u * (position & 0x03u)));
 626              		.loc 1 298 11 view .LVU232
 627 006e BC1C     		adds	r4, r7, #2
 628              	.LVL53:
 298:Drivers/STM32F0xx_HAL_Driver/Src/stm32f0xx_hal_gpio.c ****       tmp &= (0x0FuL << (4u * (position & 0x03u)));
 629              		.loc 1 298 11 view .LVU233
 630 0070 A400     		lsls	r4, r4, #2
 631 0072 1B4D     		ldr	r5, .L40
 632 0074 6559     		ldr	r5, [r4, r5]
 633              	.LVL54:
 299:Drivers/STM32F0xx_HAL_Driver/Src/stm32f0xx_hal_gpio.c ****       if (tmp == (GPIO_GET_INDEX(GPIOx) << (4u * (position & 0x03u)))) {
 634              		.loc 1 299 7 is_stmt 1 view .LVU234
 299:Drivers/STM32F0xx_HAL_Driver/Src/stm32f0xx_hal_gpio.c ****       if (tmp == (GPIO_GET_INDEX(GPIOx) << (4u * (position & 0x03u)))) {
 635              		.loc 1 299 41 is_stmt 0 view .LVU235
 636 0076 0326     		movs	r6, #3
 637 0078 1E40     		ands	r6, r3
 299:Drivers/STM32F0xx_HAL_Driver/Src/stm32f0xx_hal_gpio.c ****       if (tmp == (GPIO_GET_INDEX(GPIOx) << (4u * (position & 0x03u)))) {
 638              		.loc 1 299 29 view .LVU236
 639 007a B400     		lsls	r4, r6, #2
 299:Drivers/STM32F0xx_HAL_Driver/Src/stm32f0xx_hal_gpio.c ****       if (tmp == (GPIO_GET_INDEX(GPIOx) << (4u * (position & 0x03u)))) {
 640              		.loc 1 299 22 view .LVU237
 641 007c 0F26     		movs	r6, #15
 642 007e A640     		lsls	r6, r6, r4
 299:Drivers/STM32F0xx_HAL_Driver/Src/stm32f0xx_hal_gpio.c ****       if (tmp == (GPIO_GET_INDEX(GPIOx) << (4u * (position & 0x03u)))) {
 643              		.loc 1 299 11 view .LVU238
 644 0080 3540     		ands	r5, r6
 645              	.LVL55:
 300:Drivers/STM32F0xx_HAL_Driver/Src/stm32f0xx_hal_gpio.c ****         /* Clear EXTI line configuration */
 646              		.loc 1 300 7 is_stmt 1 view .LVU239
 300:Drivers/STM32F0xx_HAL_Driver/Src/stm32f0xx_hal_gpio.c ****         /* Clear EXTI line configuration */
 647              		.loc 1 300 19 is_stmt 0 view .LVU240
 648 0082 9021     		movs	r1, #144
 649              	.LVL56:
 300:Drivers/STM32F0xx_HAL_Driver/Src/stm32f0xx_hal_gpio.c ****         /* Clear EXTI line configuration */
 650              		.loc 1 300 19 view .LVU241
 651 0084 C905     		lsls	r1, r1, #23
 652 0086 8842     		cmp	r0, r1
 653 0088 C4D0     		beq	.L33
 300:Drivers/STM32F0xx_HAL_Driver/Src/stm32f0xx_hal_gpio.c ****         /* Clear EXTI line configuration */
 654              		.loc 1 300 19 discriminator 1 view .LVU242
ARM GAS  /tmp/ccY1Uct9.s 			page 20


 655 008a 1649     		ldr	r1, .L40+4
 656 008c 8842     		cmp	r0, r1
 657 008e 08D0     		beq	.L34
 300:Drivers/STM32F0xx_HAL_Driver/Src/stm32f0xx_hal_gpio.c ****         /* Clear EXTI line configuration */
 658              		.loc 1 300 19 discriminator 3 view .LVU243
 659 0090 1549     		ldr	r1, .L40+8
 660 0092 8842     		cmp	r0, r1
 661 0094 08D0     		beq	.L35
 300:Drivers/STM32F0xx_HAL_Driver/Src/stm32f0xx_hal_gpio.c ****         /* Clear EXTI line configuration */
 662              		.loc 1 300 19 discriminator 5 view .LVU244
 663 0096 1549     		ldr	r1, .L40+12
 664 0098 8842     		cmp	r0, r1
 665 009a B8D0     		beq	.L39
 300:Drivers/STM32F0xx_HAL_Driver/Src/stm32f0xx_hal_gpio.c ****         /* Clear EXTI line configuration */
 666              		.loc 1 300 19 discriminator 8 view .LVU245
 667 009c 0521     		movs	r1, #5
 668 009e 8846     		mov	r8, r1
 669 00a0 BAE7     		b	.L30
 670              	.L34:
 300:Drivers/STM32F0xx_HAL_Driver/Src/stm32f0xx_hal_gpio.c ****         /* Clear EXTI line configuration */
 671              		.loc 1 300 19 discriminator 4 view .LVU246
 672 00a2 0121     		movs	r1, #1
 673 00a4 8846     		mov	r8, r1
 674 00a6 B7E7     		b	.L30
 675              	.L35:
 300:Drivers/STM32F0xx_HAL_Driver/Src/stm32f0xx_hal_gpio.c ****         /* Clear EXTI line configuration */
 676              		.loc 1 300 19 discriminator 6 view .LVU247
 677 00a8 0221     		movs	r1, #2
 678 00aa 8846     		mov	r8, r1
 679 00ac B4E7     		b	.L30
 680              	.L37:
 302:Drivers/STM32F0xx_HAL_Driver/Src/stm32f0xx_hal_gpio.c ****         EXTI->EMR &= ~((uint32_t)iocurrent);
 681              		.loc 1 302 9 is_stmt 1 view .LVU248
 302:Drivers/STM32F0xx_HAL_Driver/Src/stm32f0xx_hal_gpio.c ****         EXTI->EMR &= ~((uint32_t)iocurrent);
 682              		.loc 1 302 13 is_stmt 0 view .LVU249
 683 00ae 104C     		ldr	r4, .L40+16
 684 00b0 2568     		ldr	r5, [r4]
 685              	.LVL57:
 302:Drivers/STM32F0xx_HAL_Driver/Src/stm32f0xx_hal_gpio.c ****         EXTI->EMR &= ~((uint32_t)iocurrent);
 686              		.loc 1 302 19 view .LVU250
 687 00b2 6146     		mov	r1, ip
 688 00b4 8D43     		bics	r5, r1
 689 00b6 2560     		str	r5, [r4]
 303:Drivers/STM32F0xx_HAL_Driver/Src/stm32f0xx_hal_gpio.c **** 
 690              		.loc 1 303 9 is_stmt 1 view .LVU251
 303:Drivers/STM32F0xx_HAL_Driver/Src/stm32f0xx_hal_gpio.c **** 
 691              		.loc 1 303 13 is_stmt 0 view .LVU252
 692 00b8 6568     		ldr	r5, [r4, #4]
 303:Drivers/STM32F0xx_HAL_Driver/Src/stm32f0xx_hal_gpio.c **** 
 693              		.loc 1 303 19 view .LVU253
 694 00ba 8D43     		bics	r5, r1
 695 00bc 6560     		str	r5, [r4, #4]
 306:Drivers/STM32F0xx_HAL_Driver/Src/stm32f0xx_hal_gpio.c ****         EXTI->RTSR &= ~((uint32_t)iocurrent);
 696              		.loc 1 306 9 is_stmt 1 view .LVU254
 306:Drivers/STM32F0xx_HAL_Driver/Src/stm32f0xx_hal_gpio.c ****         EXTI->RTSR &= ~((uint32_t)iocurrent);
 697              		.loc 1 306 13 is_stmt 0 view .LVU255
 698 00be E568     		ldr	r5, [r4, #12]
ARM GAS  /tmp/ccY1Uct9.s 			page 21


 306:Drivers/STM32F0xx_HAL_Driver/Src/stm32f0xx_hal_gpio.c ****         EXTI->RTSR &= ~((uint32_t)iocurrent);
 699              		.loc 1 306 20 view .LVU256
 700 00c0 8D43     		bics	r5, r1
 701 00c2 E560     		str	r5, [r4, #12]
 307:Drivers/STM32F0xx_HAL_Driver/Src/stm32f0xx_hal_gpio.c **** 
 702              		.loc 1 307 9 is_stmt 1 view .LVU257
 307:Drivers/STM32F0xx_HAL_Driver/Src/stm32f0xx_hal_gpio.c **** 
 703              		.loc 1 307 13 is_stmt 0 view .LVU258
 704 00c4 A568     		ldr	r5, [r4, #8]
 307:Drivers/STM32F0xx_HAL_Driver/Src/stm32f0xx_hal_gpio.c **** 
 705              		.loc 1 307 20 view .LVU259
 706 00c6 8D43     		bics	r5, r1
 707 00c8 A560     		str	r5, [r4, #8]
 310:Drivers/STM32F0xx_HAL_Driver/Src/stm32f0xx_hal_gpio.c ****         SYSCFG->EXTICR[position >> 2u] &= ~tmp;
 708              		.loc 1 310 9 is_stmt 1 view .LVU260
 709              	.LVL58:
 311:Drivers/STM32F0xx_HAL_Driver/Src/stm32f0xx_hal_gpio.c ****       }
 710              		.loc 1 311 9 view .LVU261
 311:Drivers/STM32F0xx_HAL_Driver/Src/stm32f0xx_hal_gpio.c ****       }
 711              		.loc 1 311 23 is_stmt 0 view .LVU262
 712 00ca 0549     		ldr	r1, .L40
 713 00cc 0237     		adds	r7, r7, #2
 714 00ce BC00     		lsls	r4, r7, #2
 715 00d0 6558     		ldr	r5, [r4, r1]
 311:Drivers/STM32F0xx_HAL_Driver/Src/stm32f0xx_hal_gpio.c ****       }
 716              		.loc 1 311 40 view .LVU263
 717 00d2 B543     		bics	r5, r6
 718 00d4 6550     		str	r5, [r4, r1]
 719 00d6 A3E7     		b	.L31
 720              	.LVL59:
 721              	.L38:
 333:Drivers/STM32F0xx_HAL_Driver/Src/stm32f0xx_hal_gpio.c ****   }
 334:Drivers/STM32F0xx_HAL_Driver/Src/stm32f0xx_hal_gpio.c **** }
 722              		.loc 1 334 1 view .LVU264
 723              		@ sp needed
 724              	.LVL60:
 725              		.loc 1 334 1 view .LVU265
 726 00d8 C0BC     		pop	{r6, r7}
 727 00da B946     		mov	r9, r7
 728 00dc B046     		mov	r8, r6
 729 00de F0BD     		pop	{r4, r5, r6, r7, pc}
 730              	.L41:
 731              		.align	2
 732              	.L40:
 733 00e0 00000140 		.word	1073807360
 734 00e4 00040048 		.word	1207960576
 735 00e8 00080048 		.word	1207961600
 736 00ec 000C0048 		.word	1207962624
 737 00f0 00040140 		.word	1073808384
 738              		.cfi_endproc
 739              	.LFE41:
 741              		.section	.text.HAL_GPIO_ReadPin,"ax",%progbits
 742              		.align	1
 743              		.global	HAL_GPIO_ReadPin
 744              		.syntax unified
 745              		.code	16
 746              		.thumb_func
ARM GAS  /tmp/ccY1Uct9.s 			page 22


 748              	HAL_GPIO_ReadPin:
 749              	.LVL61:
 750              	.LFB42:
 335:Drivers/STM32F0xx_HAL_Driver/Src/stm32f0xx_hal_gpio.c **** 
 336:Drivers/STM32F0xx_HAL_Driver/Src/stm32f0xx_hal_gpio.c **** /**
 337:Drivers/STM32F0xx_HAL_Driver/Src/stm32f0xx_hal_gpio.c ****  * @}
 338:Drivers/STM32F0xx_HAL_Driver/Src/stm32f0xx_hal_gpio.c ****  */
 339:Drivers/STM32F0xx_HAL_Driver/Src/stm32f0xx_hal_gpio.c **** 
 340:Drivers/STM32F0xx_HAL_Driver/Src/stm32f0xx_hal_gpio.c **** /** @defgroup GPIO_Exported_Functions_Group2 IO operation functions
 341:Drivers/STM32F0xx_HAL_Driver/Src/stm32f0xx_hal_gpio.c ****  *  @brief GPIO Read, Write, Toggle, Lock and EXTI management functions.
 342:Drivers/STM32F0xx_HAL_Driver/Src/stm32f0xx_hal_gpio.c ****  *
 343:Drivers/STM32F0xx_HAL_Driver/Src/stm32f0xx_hal_gpio.c **** @verbatim
 344:Drivers/STM32F0xx_HAL_Driver/Src/stm32f0xx_hal_gpio.c ****  ===============================================================================
 345:Drivers/STM32F0xx_HAL_Driver/Src/stm32f0xx_hal_gpio.c ****                        ##### IO operation functions #####
 346:Drivers/STM32F0xx_HAL_Driver/Src/stm32f0xx_hal_gpio.c ****  ===============================================================================
 347:Drivers/STM32F0xx_HAL_Driver/Src/stm32f0xx_hal_gpio.c **** 
 348:Drivers/STM32F0xx_HAL_Driver/Src/stm32f0xx_hal_gpio.c **** @endverbatim
 349:Drivers/STM32F0xx_HAL_Driver/Src/stm32f0xx_hal_gpio.c ****   * @{
 350:Drivers/STM32F0xx_HAL_Driver/Src/stm32f0xx_hal_gpio.c ****   */
 351:Drivers/STM32F0xx_HAL_Driver/Src/stm32f0xx_hal_gpio.c **** 
 352:Drivers/STM32F0xx_HAL_Driver/Src/stm32f0xx_hal_gpio.c **** /**
 353:Drivers/STM32F0xx_HAL_Driver/Src/stm32f0xx_hal_gpio.c ****  * @brief  Read the specified input port pin.
 354:Drivers/STM32F0xx_HAL_Driver/Src/stm32f0xx_hal_gpio.c ****  * @param  GPIOx where x can be (A..F) to select the GPIO peripheral for STM32F0
 355:Drivers/STM32F0xx_HAL_Driver/Src/stm32f0xx_hal_gpio.c ****  * family
 356:Drivers/STM32F0xx_HAL_Driver/Src/stm32f0xx_hal_gpio.c ****  * @param  GPIO_Pin specifies the port bit to read.
 357:Drivers/STM32F0xx_HAL_Driver/Src/stm32f0xx_hal_gpio.c ****  *         This parameter can be GPIO_PIN_x where x can be (0..15).
 358:Drivers/STM32F0xx_HAL_Driver/Src/stm32f0xx_hal_gpio.c ****  * @retval The input port pin value.
 359:Drivers/STM32F0xx_HAL_Driver/Src/stm32f0xx_hal_gpio.c ****  */
 360:Drivers/STM32F0xx_HAL_Driver/Src/stm32f0xx_hal_gpio.c **** GPIO_PinState HAL_GPIO_ReadPin(GPIO_TypeDef *GPIOx, uint16_t GPIO_Pin) {
 751              		.loc 1 360 72 is_stmt 1 view -0
 752              		.cfi_startproc
 753              		@ args = 0, pretend = 0, frame = 0
 754              		@ frame_needed = 0, uses_anonymous_args = 0
 755              		@ link register save eliminated.
 361:Drivers/STM32F0xx_HAL_Driver/Src/stm32f0xx_hal_gpio.c ****   GPIO_PinState bitstatus;
 756              		.loc 1 361 3 view .LVU267
 362:Drivers/STM32F0xx_HAL_Driver/Src/stm32f0xx_hal_gpio.c **** 
 363:Drivers/STM32F0xx_HAL_Driver/Src/stm32f0xx_hal_gpio.c ****   /* Check the parameters */
 364:Drivers/STM32F0xx_HAL_Driver/Src/stm32f0xx_hal_gpio.c ****   assert_param(IS_GPIO_PIN(GPIO_Pin));
 757              		.loc 1 364 3 view .LVU268
 365:Drivers/STM32F0xx_HAL_Driver/Src/stm32f0xx_hal_gpio.c **** 
 366:Drivers/STM32F0xx_HAL_Driver/Src/stm32f0xx_hal_gpio.c ****   if ((GPIOx->IDR & GPIO_Pin) != (uint32_t)GPIO_PIN_RESET) {
 758              		.loc 1 366 3 view .LVU269
 759              		.loc 1 366 13 is_stmt 0 view .LVU270
 760 0000 0369     		ldr	r3, [r0, #16]
 761              		.loc 1 366 6 view .LVU271
 762 0002 0B42     		tst	r3, r1
 763 0004 01D0     		beq	.L44
 367:Drivers/STM32F0xx_HAL_Driver/Src/stm32f0xx_hal_gpio.c ****     bitstatus = GPIO_PIN_SET;
 764              		.loc 1 367 15 view .LVU272
 765 0006 0120     		movs	r0, #1
 766              	.LVL62:
 767              	.L43:
 368:Drivers/STM32F0xx_HAL_Driver/Src/stm32f0xx_hal_gpio.c ****   } else {
 369:Drivers/STM32F0xx_HAL_Driver/Src/stm32f0xx_hal_gpio.c ****     bitstatus = GPIO_PIN_RESET;
 370:Drivers/STM32F0xx_HAL_Driver/Src/stm32f0xx_hal_gpio.c ****   }
 371:Drivers/STM32F0xx_HAL_Driver/Src/stm32f0xx_hal_gpio.c ****   return bitstatus;
ARM GAS  /tmp/ccY1Uct9.s 			page 23


 768              		.loc 1 371 3 is_stmt 1 view .LVU273
 372:Drivers/STM32F0xx_HAL_Driver/Src/stm32f0xx_hal_gpio.c **** }
 769              		.loc 1 372 1 is_stmt 0 view .LVU274
 770              		@ sp needed
 771 0008 7047     		bx	lr
 772              	.LVL63:
 773              	.L44:
 369:Drivers/STM32F0xx_HAL_Driver/Src/stm32f0xx_hal_gpio.c ****   }
 774              		.loc 1 369 15 view .LVU275
 775 000a 0020     		movs	r0, #0
 776              	.LVL64:
 369:Drivers/STM32F0xx_HAL_Driver/Src/stm32f0xx_hal_gpio.c ****   }
 777              		.loc 1 369 15 view .LVU276
 778 000c FCE7     		b	.L43
 779              		.cfi_endproc
 780              	.LFE42:
 782              		.section	.text.HAL_GPIO_WritePin,"ax",%progbits
 783              		.align	1
 784              		.global	HAL_GPIO_WritePin
 785              		.syntax unified
 786              		.code	16
 787              		.thumb_func
 789              	HAL_GPIO_WritePin:
 790              	.LVL65:
 791              	.LFB43:
 373:Drivers/STM32F0xx_HAL_Driver/Src/stm32f0xx_hal_gpio.c **** 
 374:Drivers/STM32F0xx_HAL_Driver/Src/stm32f0xx_hal_gpio.c **** /**
 375:Drivers/STM32F0xx_HAL_Driver/Src/stm32f0xx_hal_gpio.c ****  * @brief  Set or clear the selected data port bit.
 376:Drivers/STM32F0xx_HAL_Driver/Src/stm32f0xx_hal_gpio.c ****  * @note   This function uses GPIOx_BSRR and GPIOx_BRR registers to allow atomic
 377:Drivers/STM32F0xx_HAL_Driver/Src/stm32f0xx_hal_gpio.c ****  * read/modify accesses. In this way, there is no risk of an IRQ occurring
 378:Drivers/STM32F0xx_HAL_Driver/Src/stm32f0xx_hal_gpio.c ****  * between the read and the modify access.
 379:Drivers/STM32F0xx_HAL_Driver/Src/stm32f0xx_hal_gpio.c ****  *
 380:Drivers/STM32F0xx_HAL_Driver/Src/stm32f0xx_hal_gpio.c ****  * @param  GPIOx where x can be (A..H) to select the GPIO peripheral for STM32F0
 381:Drivers/STM32F0xx_HAL_Driver/Src/stm32f0xx_hal_gpio.c ****  * family
 382:Drivers/STM32F0xx_HAL_Driver/Src/stm32f0xx_hal_gpio.c ****  * @param  GPIO_Pin specifies the port bit to be written.
 383:Drivers/STM32F0xx_HAL_Driver/Src/stm32f0xx_hal_gpio.c ****  *          This parameter can be one of GPIO_PIN_x where x can be (0..15).
 384:Drivers/STM32F0xx_HAL_Driver/Src/stm32f0xx_hal_gpio.c ****  * @param  PinState specifies the value to be written to the selected bit.
 385:Drivers/STM32F0xx_HAL_Driver/Src/stm32f0xx_hal_gpio.c ****  *          This parameter can be one of the GPIO_PinState enum values:
 386:Drivers/STM32F0xx_HAL_Driver/Src/stm32f0xx_hal_gpio.c ****  *            @arg GPIO_PIN_RESET: to clear the port pin
 387:Drivers/STM32F0xx_HAL_Driver/Src/stm32f0xx_hal_gpio.c ****  *            @arg GPIO_PIN_SET: to set the port pin
 388:Drivers/STM32F0xx_HAL_Driver/Src/stm32f0xx_hal_gpio.c ****  * @retval None
 389:Drivers/STM32F0xx_HAL_Driver/Src/stm32f0xx_hal_gpio.c ****  */
 390:Drivers/STM32F0xx_HAL_Driver/Src/stm32f0xx_hal_gpio.c **** void HAL_GPIO_WritePin(GPIO_TypeDef *GPIOx, uint16_t GPIO_Pin,
 391:Drivers/STM32F0xx_HAL_Driver/Src/stm32f0xx_hal_gpio.c ****                        GPIO_PinState PinState) {
 792              		.loc 1 391 48 is_stmt 1 view -0
 793              		.cfi_startproc
 794              		@ args = 0, pretend = 0, frame = 0
 795              		@ frame_needed = 0, uses_anonymous_args = 0
 796              		@ link register save eliminated.
 392:Drivers/STM32F0xx_HAL_Driver/Src/stm32f0xx_hal_gpio.c ****   /* Check the parameters */
 393:Drivers/STM32F0xx_HAL_Driver/Src/stm32f0xx_hal_gpio.c ****   assert_param(IS_GPIO_PIN(GPIO_Pin));
 797              		.loc 1 393 3 view .LVU278
 394:Drivers/STM32F0xx_HAL_Driver/Src/stm32f0xx_hal_gpio.c ****   assert_param(IS_GPIO_PIN_ACTION(PinState));
 798              		.loc 1 394 3 view .LVU279
 395:Drivers/STM32F0xx_HAL_Driver/Src/stm32f0xx_hal_gpio.c **** 
 396:Drivers/STM32F0xx_HAL_Driver/Src/stm32f0xx_hal_gpio.c ****   if (PinState != GPIO_PIN_RESET) {
 799              		.loc 1 396 3 view .LVU280
ARM GAS  /tmp/ccY1Uct9.s 			page 24


 800              		.loc 1 396 6 is_stmt 0 view .LVU281
 801 0000 002A     		cmp	r2, #0
 802 0002 01D0     		beq	.L46
 397:Drivers/STM32F0xx_HAL_Driver/Src/stm32f0xx_hal_gpio.c ****     GPIOx->BSRR = (uint32_t)GPIO_Pin;
 803              		.loc 1 397 5 is_stmt 1 view .LVU282
 804              		.loc 1 397 17 is_stmt 0 view .LVU283
 805 0004 8161     		str	r1, [r0, #24]
 806              	.L45:
 398:Drivers/STM32F0xx_HAL_Driver/Src/stm32f0xx_hal_gpio.c ****   } else {
 399:Drivers/STM32F0xx_HAL_Driver/Src/stm32f0xx_hal_gpio.c ****     GPIOx->BRR = (uint32_t)GPIO_Pin;
 400:Drivers/STM32F0xx_HAL_Driver/Src/stm32f0xx_hal_gpio.c ****   }
 401:Drivers/STM32F0xx_HAL_Driver/Src/stm32f0xx_hal_gpio.c **** }
 807              		.loc 1 401 1 view .LVU284
 808              		@ sp needed
 809 0006 7047     		bx	lr
 810              	.L46:
 399:Drivers/STM32F0xx_HAL_Driver/Src/stm32f0xx_hal_gpio.c ****   }
 811              		.loc 1 399 5 is_stmt 1 view .LVU285
 399:Drivers/STM32F0xx_HAL_Driver/Src/stm32f0xx_hal_gpio.c ****   }
 812              		.loc 1 399 16 is_stmt 0 view .LVU286
 813 0008 8162     		str	r1, [r0, #40]
 814              		.loc 1 401 1 view .LVU287
 815 000a FCE7     		b	.L45
 816              		.cfi_endproc
 817              	.LFE43:
 819              		.section	.text.HAL_GPIO_TogglePin,"ax",%progbits
 820              		.align	1
 821              		.global	HAL_GPIO_TogglePin
 822              		.syntax unified
 823              		.code	16
 824              		.thumb_func
 826              	HAL_GPIO_TogglePin:
 827              	.LVL66:
 828              	.LFB44:
 402:Drivers/STM32F0xx_HAL_Driver/Src/stm32f0xx_hal_gpio.c **** 
 403:Drivers/STM32F0xx_HAL_Driver/Src/stm32f0xx_hal_gpio.c **** /**
 404:Drivers/STM32F0xx_HAL_Driver/Src/stm32f0xx_hal_gpio.c ****  * @brief  Toggle the specified GPIO pin.
 405:Drivers/STM32F0xx_HAL_Driver/Src/stm32f0xx_hal_gpio.c ****  * @param  GPIOx where x can be (A..F) to select the GPIO peripheral for STM32F0
 406:Drivers/STM32F0xx_HAL_Driver/Src/stm32f0xx_hal_gpio.c ****  * family
 407:Drivers/STM32F0xx_HAL_Driver/Src/stm32f0xx_hal_gpio.c ****  * @param  GPIO_Pin specifies the pin to be toggled.
 408:Drivers/STM32F0xx_HAL_Driver/Src/stm32f0xx_hal_gpio.c ****  * @retval None
 409:Drivers/STM32F0xx_HAL_Driver/Src/stm32f0xx_hal_gpio.c ****  */
 410:Drivers/STM32F0xx_HAL_Driver/Src/stm32f0xx_hal_gpio.c **** void HAL_GPIO_TogglePin(GPIO_TypeDef *GPIOx, uint16_t GPIO_Pin) {
 829              		.loc 1 410 65 is_stmt 1 view -0
 830              		.cfi_startproc
 831              		@ args = 0, pretend = 0, frame = 0
 832              		@ frame_needed = 0, uses_anonymous_args = 0
 833              		@ link register save eliminated.
 411:Drivers/STM32F0xx_HAL_Driver/Src/stm32f0xx_hal_gpio.c ****   uint32_t odr;
 834              		.loc 1 411 3 view .LVU289
 412:Drivers/STM32F0xx_HAL_Driver/Src/stm32f0xx_hal_gpio.c **** 
 413:Drivers/STM32F0xx_HAL_Driver/Src/stm32f0xx_hal_gpio.c ****   /* Check the parameters */
 414:Drivers/STM32F0xx_HAL_Driver/Src/stm32f0xx_hal_gpio.c ****   assert_param(IS_GPIO_PIN(GPIO_Pin));
 835              		.loc 1 414 3 view .LVU290
 415:Drivers/STM32F0xx_HAL_Driver/Src/stm32f0xx_hal_gpio.c **** 
 416:Drivers/STM32F0xx_HAL_Driver/Src/stm32f0xx_hal_gpio.c ****   /* get current Output Data Register value */
 417:Drivers/STM32F0xx_HAL_Driver/Src/stm32f0xx_hal_gpio.c ****   odr = GPIOx->ODR;
ARM GAS  /tmp/ccY1Uct9.s 			page 25


 836              		.loc 1 417 3 view .LVU291
 837              		.loc 1 417 7 is_stmt 0 view .LVU292
 838 0000 4269     		ldr	r2, [r0, #20]
 839              	.LVL67:
 418:Drivers/STM32F0xx_HAL_Driver/Src/stm32f0xx_hal_gpio.c **** 
 419:Drivers/STM32F0xx_HAL_Driver/Src/stm32f0xx_hal_gpio.c ****   /* Set selected pins that were at low level, and reset ones that were high */
 420:Drivers/STM32F0xx_HAL_Driver/Src/stm32f0xx_hal_gpio.c ****   GPIOx->BSRR = ((odr & GPIO_Pin) << GPIO_NUMBER) | (~odr & GPIO_Pin);
 840              		.loc 1 420 3 is_stmt 1 view .LVU293
 841              		.loc 1 420 23 is_stmt 0 view .LVU294
 842 0002 1300     		movs	r3, r2
 843 0004 0B40     		ands	r3, r1
 844              		.loc 1 420 35 view .LVU295
 845 0006 1B04     		lsls	r3, r3, #16
 846              		.loc 1 420 59 view .LVU296
 847 0008 9143     		bics	r1, r2
 848              	.LVL68:
 849              		.loc 1 420 51 view .LVU297
 850 000a 0B43     		orrs	r3, r1
 851              		.loc 1 420 15 view .LVU298
 852 000c 8361     		str	r3, [r0, #24]
 421:Drivers/STM32F0xx_HAL_Driver/Src/stm32f0xx_hal_gpio.c **** }
 853              		.loc 1 421 1 view .LVU299
 854              		@ sp needed
 855 000e 7047     		bx	lr
 856              		.cfi_endproc
 857              	.LFE44:
 859              		.section	.text.HAL_GPIO_LockPin,"ax",%progbits
 860              		.align	1
 861              		.global	HAL_GPIO_LockPin
 862              		.syntax unified
 863              		.code	16
 864              		.thumb_func
 866              	HAL_GPIO_LockPin:
 867              	.LVL69:
 868              	.LFB45:
 422:Drivers/STM32F0xx_HAL_Driver/Src/stm32f0xx_hal_gpio.c **** 
 423:Drivers/STM32F0xx_HAL_Driver/Src/stm32f0xx_hal_gpio.c **** /**
 424:Drivers/STM32F0xx_HAL_Driver/Src/stm32f0xx_hal_gpio.c ****  * @brief  Locks GPIO Pins configuration registers.
 425:Drivers/STM32F0xx_HAL_Driver/Src/stm32f0xx_hal_gpio.c ****  * @note   The locked registers are GPIOx_MODER, GPIOx_OTYPER, GPIOx_OSPEEDR,
 426:Drivers/STM32F0xx_HAL_Driver/Src/stm32f0xx_hal_gpio.c ****  *         GPIOx_PUPDR, GPIOx_AFRL and GPIOx_AFRH.
 427:Drivers/STM32F0xx_HAL_Driver/Src/stm32f0xx_hal_gpio.c ****  * @note   The configuration of the locked GPIO pins can no longer be modified
 428:Drivers/STM32F0xx_HAL_Driver/Src/stm32f0xx_hal_gpio.c ****  *         until the next reset.
 429:Drivers/STM32F0xx_HAL_Driver/Src/stm32f0xx_hal_gpio.c ****  * @param  GPIOx where x can be (A..F) to select the GPIO peripheral for STM32F0
 430:Drivers/STM32F0xx_HAL_Driver/Src/stm32f0xx_hal_gpio.c ****  * family
 431:Drivers/STM32F0xx_HAL_Driver/Src/stm32f0xx_hal_gpio.c ****  * @param  GPIO_Pin specifies the port bits to be locked.
 432:Drivers/STM32F0xx_HAL_Driver/Src/stm32f0xx_hal_gpio.c ****  *         This parameter can be any combination of GPIO_PIN_x where x can be
 433:Drivers/STM32F0xx_HAL_Driver/Src/stm32f0xx_hal_gpio.c ****  * (0..15).
 434:Drivers/STM32F0xx_HAL_Driver/Src/stm32f0xx_hal_gpio.c ****  * @retval None
 435:Drivers/STM32F0xx_HAL_Driver/Src/stm32f0xx_hal_gpio.c ****  */
 436:Drivers/STM32F0xx_HAL_Driver/Src/stm32f0xx_hal_gpio.c **** HAL_StatusTypeDef HAL_GPIO_LockPin(GPIO_TypeDef *GPIOx, uint16_t GPIO_Pin) {
 869              		.loc 1 436 76 is_stmt 1 view -0
 870              		.cfi_startproc
 871              		@ args = 0, pretend = 0, frame = 8
 872              		@ frame_needed = 0, uses_anonymous_args = 0
 873              		@ link register save eliminated.
 874              		.loc 1 436 76 is_stmt 0 view .LVU301
 875 0000 82B0     		sub	sp, sp, #8
ARM GAS  /tmp/ccY1Uct9.s 			page 26


 876              	.LCFI4:
 877              		.cfi_def_cfa_offset 8
 437:Drivers/STM32F0xx_HAL_Driver/Src/stm32f0xx_hal_gpio.c ****   __IO uint32_t tmp = GPIO_LCKR_LCKK;
 878              		.loc 1 437 3 is_stmt 1 view .LVU302
 879              		.loc 1 437 17 is_stmt 0 view .LVU303
 880 0002 8022     		movs	r2, #128
 881 0004 5202     		lsls	r2, r2, #9
 882 0006 0192     		str	r2, [sp, #4]
 438:Drivers/STM32F0xx_HAL_Driver/Src/stm32f0xx_hal_gpio.c **** 
 439:Drivers/STM32F0xx_HAL_Driver/Src/stm32f0xx_hal_gpio.c ****   /* Check the parameters */
 440:Drivers/STM32F0xx_HAL_Driver/Src/stm32f0xx_hal_gpio.c ****   assert_param(IS_GPIO_LOCK_INSTANCE(GPIOx));
 883              		.loc 1 440 3 is_stmt 1 view .LVU304
 441:Drivers/STM32F0xx_HAL_Driver/Src/stm32f0xx_hal_gpio.c ****   assert_param(IS_GPIO_PIN(GPIO_Pin));
 884              		.loc 1 441 3 view .LVU305
 442:Drivers/STM32F0xx_HAL_Driver/Src/stm32f0xx_hal_gpio.c **** 
 443:Drivers/STM32F0xx_HAL_Driver/Src/stm32f0xx_hal_gpio.c ****   /* Apply lock key write sequence */
 444:Drivers/STM32F0xx_HAL_Driver/Src/stm32f0xx_hal_gpio.c ****   SET_BIT(tmp, GPIO_Pin);
 885              		.loc 1 444 3 view .LVU306
 886 0008 019B     		ldr	r3, [sp, #4]
 887 000a 0B43     		orrs	r3, r1
 888 000c 0193     		str	r3, [sp, #4]
 445:Drivers/STM32F0xx_HAL_Driver/Src/stm32f0xx_hal_gpio.c ****   /* Set LCKx bit(s): LCKK='1' + LCK[15-0] */
 446:Drivers/STM32F0xx_HAL_Driver/Src/stm32f0xx_hal_gpio.c ****   GPIOx->LCKR = tmp;
 889              		.loc 1 446 3 view .LVU307
 890              		.loc 1 446 15 is_stmt 0 view .LVU308
 891 000e 019B     		ldr	r3, [sp, #4]
 892 0010 C361     		str	r3, [r0, #28]
 447:Drivers/STM32F0xx_HAL_Driver/Src/stm32f0xx_hal_gpio.c ****   /* Reset LCKx bit(s): LCKK='0' + LCK[15-0] */
 448:Drivers/STM32F0xx_HAL_Driver/Src/stm32f0xx_hal_gpio.c ****   GPIOx->LCKR = GPIO_Pin;
 893              		.loc 1 448 3 is_stmt 1 view .LVU309
 894              		.loc 1 448 15 is_stmt 0 view .LVU310
 895 0012 C161     		str	r1, [r0, #28]
 449:Drivers/STM32F0xx_HAL_Driver/Src/stm32f0xx_hal_gpio.c ****   /* Set LCKx bit(s): LCKK='1' + LCK[15-0] */
 450:Drivers/STM32F0xx_HAL_Driver/Src/stm32f0xx_hal_gpio.c ****   GPIOx->LCKR = tmp;
 896              		.loc 1 450 3 is_stmt 1 view .LVU311
 897              		.loc 1 450 15 is_stmt 0 view .LVU312
 898 0014 019B     		ldr	r3, [sp, #4]
 899 0016 C361     		str	r3, [r0, #28]
 451:Drivers/STM32F0xx_HAL_Driver/Src/stm32f0xx_hal_gpio.c ****   /* Read LCKK register. This read is mandatory to complete key lock sequence */
 452:Drivers/STM32F0xx_HAL_Driver/Src/stm32f0xx_hal_gpio.c ****   tmp = GPIOx->LCKR;
 900              		.loc 1 452 3 is_stmt 1 view .LVU313
 901              		.loc 1 452 14 is_stmt 0 view .LVU314
 902 0018 C369     		ldr	r3, [r0, #28]
 903              		.loc 1 452 7 view .LVU315
 904 001a 0193     		str	r3, [sp, #4]
 453:Drivers/STM32F0xx_HAL_Driver/Src/stm32f0xx_hal_gpio.c **** 
 454:Drivers/STM32F0xx_HAL_Driver/Src/stm32f0xx_hal_gpio.c ****   /* read again in order to confirm lock is active */
 455:Drivers/STM32F0xx_HAL_Driver/Src/stm32f0xx_hal_gpio.c ****   if ((GPIOx->LCKR & GPIO_LCKR_LCKK) != 0x00u) {
 905              		.loc 1 455 3 is_stmt 1 view .LVU316
 906              		.loc 1 455 13 is_stmt 0 view .LVU317
 907 001c C369     		ldr	r3, [r0, #28]
 908              		.loc 1 455 6 view .LVU318
 909 001e 1342     		tst	r3, r2
 910 0020 02D0     		beq	.L51
 456:Drivers/STM32F0xx_HAL_Driver/Src/stm32f0xx_hal_gpio.c ****     return HAL_OK;
 911              		.loc 1 456 12 view .LVU319
 912 0022 0020     		movs	r0, #0
ARM GAS  /tmp/ccY1Uct9.s 			page 27


 913              	.LVL70:
 914              	.L50:
 457:Drivers/STM32F0xx_HAL_Driver/Src/stm32f0xx_hal_gpio.c ****   } else {
 458:Drivers/STM32F0xx_HAL_Driver/Src/stm32f0xx_hal_gpio.c ****     return HAL_ERROR;
 459:Drivers/STM32F0xx_HAL_Driver/Src/stm32f0xx_hal_gpio.c ****   }
 460:Drivers/STM32F0xx_HAL_Driver/Src/stm32f0xx_hal_gpio.c **** }
 915              		.loc 1 460 1 view .LVU320
 916 0024 02B0     		add	sp, sp, #8
 917              		@ sp needed
 918 0026 7047     		bx	lr
 919              	.LVL71:
 920              	.L51:
 458:Drivers/STM32F0xx_HAL_Driver/Src/stm32f0xx_hal_gpio.c ****   }
 921              		.loc 1 458 12 view .LVU321
 922 0028 0120     		movs	r0, #1
 923              	.LVL72:
 458:Drivers/STM32F0xx_HAL_Driver/Src/stm32f0xx_hal_gpio.c ****   }
 924              		.loc 1 458 12 view .LVU322
 925 002a FBE7     		b	.L50
 926              		.cfi_endproc
 927              	.LFE45:
 929              		.section	.text.HAL_GPIO_EXTI_Callback,"ax",%progbits
 930              		.align	1
 931              		.weak	HAL_GPIO_EXTI_Callback
 932              		.syntax unified
 933              		.code	16
 934              		.thumb_func
 936              	HAL_GPIO_EXTI_Callback:
 937              	.LVL73:
 938              	.LFB47:
 461:Drivers/STM32F0xx_HAL_Driver/Src/stm32f0xx_hal_gpio.c **** 
 462:Drivers/STM32F0xx_HAL_Driver/Src/stm32f0xx_hal_gpio.c **** /**
 463:Drivers/STM32F0xx_HAL_Driver/Src/stm32f0xx_hal_gpio.c ****  * @brief  Handle EXTI interrupt request.
 464:Drivers/STM32F0xx_HAL_Driver/Src/stm32f0xx_hal_gpio.c ****  * @param  GPIO_Pin Specifies the port pin connected to corresponding EXTI line.
 465:Drivers/STM32F0xx_HAL_Driver/Src/stm32f0xx_hal_gpio.c ****  * @retval None
 466:Drivers/STM32F0xx_HAL_Driver/Src/stm32f0xx_hal_gpio.c ****  */
 467:Drivers/STM32F0xx_HAL_Driver/Src/stm32f0xx_hal_gpio.c **** void HAL_GPIO_EXTI_IRQHandler(uint16_t GPIO_Pin) {
 468:Drivers/STM32F0xx_HAL_Driver/Src/stm32f0xx_hal_gpio.c ****   /* EXTI line interrupt detected */
 469:Drivers/STM32F0xx_HAL_Driver/Src/stm32f0xx_hal_gpio.c ****   if (__HAL_GPIO_EXTI_GET_IT(GPIO_Pin) != 0x00u) {
 470:Drivers/STM32F0xx_HAL_Driver/Src/stm32f0xx_hal_gpio.c ****     __HAL_GPIO_EXTI_CLEAR_IT(GPIO_Pin);
 471:Drivers/STM32F0xx_HAL_Driver/Src/stm32f0xx_hal_gpio.c ****     HAL_GPIO_EXTI_Callback(GPIO_Pin);
 472:Drivers/STM32F0xx_HAL_Driver/Src/stm32f0xx_hal_gpio.c ****   }
 473:Drivers/STM32F0xx_HAL_Driver/Src/stm32f0xx_hal_gpio.c **** }
 474:Drivers/STM32F0xx_HAL_Driver/Src/stm32f0xx_hal_gpio.c **** 
 475:Drivers/STM32F0xx_HAL_Driver/Src/stm32f0xx_hal_gpio.c **** /**
 476:Drivers/STM32F0xx_HAL_Driver/Src/stm32f0xx_hal_gpio.c ****  * @brief  EXTI line detection callback.
 477:Drivers/STM32F0xx_HAL_Driver/Src/stm32f0xx_hal_gpio.c ****  * @param  GPIO_Pin Specifies the port pin connected to corresponding EXTI line.
 478:Drivers/STM32F0xx_HAL_Driver/Src/stm32f0xx_hal_gpio.c ****  * @retval None
 479:Drivers/STM32F0xx_HAL_Driver/Src/stm32f0xx_hal_gpio.c ****  */
 480:Drivers/STM32F0xx_HAL_Driver/Src/stm32f0xx_hal_gpio.c **** __weak void HAL_GPIO_EXTI_Callback(uint16_t GPIO_Pin) {
 939              		.loc 1 480 55 is_stmt 1 view -0
 940              		.cfi_startproc
 941              		@ args = 0, pretend = 0, frame = 0
 942              		@ frame_needed = 0, uses_anonymous_args = 0
 943              		@ link register save eliminated.
 481:Drivers/STM32F0xx_HAL_Driver/Src/stm32f0xx_hal_gpio.c ****   /* Prevent unused argument(s) compilation warning */
 482:Drivers/STM32F0xx_HAL_Driver/Src/stm32f0xx_hal_gpio.c ****   UNUSED(GPIO_Pin);
ARM GAS  /tmp/ccY1Uct9.s 			page 28


 944              		.loc 1 482 3 view .LVU324
 483:Drivers/STM32F0xx_HAL_Driver/Src/stm32f0xx_hal_gpio.c **** 
 484:Drivers/STM32F0xx_HAL_Driver/Src/stm32f0xx_hal_gpio.c ****   /* NOTE: This function should not be modified, when the callback is needed,
 485:Drivers/STM32F0xx_HAL_Driver/Src/stm32f0xx_hal_gpio.c ****             the HAL_GPIO_EXTI_Callback could be implemented in the user file
 486:Drivers/STM32F0xx_HAL_Driver/Src/stm32f0xx_hal_gpio.c ****    */
 487:Drivers/STM32F0xx_HAL_Driver/Src/stm32f0xx_hal_gpio.c **** }
 945              		.loc 1 487 1 is_stmt 0 view .LVU325
 946              		@ sp needed
 947 0000 7047     		bx	lr
 948              		.cfi_endproc
 949              	.LFE47:
 951              		.section	.text.HAL_GPIO_EXTI_IRQHandler,"ax",%progbits
 952              		.align	1
 953              		.global	HAL_GPIO_EXTI_IRQHandler
 954              		.syntax unified
 955              		.code	16
 956              		.thumb_func
 958              	HAL_GPIO_EXTI_IRQHandler:
 959              	.LVL74:
 960              	.LFB46:
 467:Drivers/STM32F0xx_HAL_Driver/Src/stm32f0xx_hal_gpio.c ****   /* EXTI line interrupt detected */
 961              		.loc 1 467 50 is_stmt 1 view -0
 962              		.cfi_startproc
 963              		@ args = 0, pretend = 0, frame = 0
 964              		@ frame_needed = 0, uses_anonymous_args = 0
 467:Drivers/STM32F0xx_HAL_Driver/Src/stm32f0xx_hal_gpio.c ****   /* EXTI line interrupt detected */
 965              		.loc 1 467 50 is_stmt 0 view .LVU327
 966 0000 10B5     		push	{r4, lr}
 967              	.LCFI5:
 968              		.cfi_def_cfa_offset 8
 969              		.cfi_offset 4, -8
 970              		.cfi_offset 14, -4
 469:Drivers/STM32F0xx_HAL_Driver/Src/stm32f0xx_hal_gpio.c ****     __HAL_GPIO_EXTI_CLEAR_IT(GPIO_Pin);
 971              		.loc 1 469 3 is_stmt 1 view .LVU328
 469:Drivers/STM32F0xx_HAL_Driver/Src/stm32f0xx_hal_gpio.c ****     __HAL_GPIO_EXTI_CLEAR_IT(GPIO_Pin);
 972              		.loc 1 469 7 is_stmt 0 view .LVU329
 973 0002 054B     		ldr	r3, .L56
 974 0004 5B69     		ldr	r3, [r3, #20]
 469:Drivers/STM32F0xx_HAL_Driver/Src/stm32f0xx_hal_gpio.c ****     __HAL_GPIO_EXTI_CLEAR_IT(GPIO_Pin);
 975              		.loc 1 469 6 view .LVU330
 976 0006 1842     		tst	r0, r3
 977 0008 00D1     		bne	.L55
 978              	.LVL75:
 979              	.L53:
 473:Drivers/STM32F0xx_HAL_Driver/Src/stm32f0xx_hal_gpio.c **** 
 980              		.loc 1 473 1 view .LVU331
 981              		@ sp needed
 982 000a 10BD     		pop	{r4, pc}
 983              	.LVL76:
 984              	.L55:
 470:Drivers/STM32F0xx_HAL_Driver/Src/stm32f0xx_hal_gpio.c ****     HAL_GPIO_EXTI_Callback(GPIO_Pin);
 985              		.loc 1 470 5 is_stmt 1 view .LVU332
 986 000c 024B     		ldr	r3, .L56
 987 000e 5861     		str	r0, [r3, #20]
 471:Drivers/STM32F0xx_HAL_Driver/Src/stm32f0xx_hal_gpio.c ****   }
 988              		.loc 1 471 5 view .LVU333
 989 0010 FFF7FEFF 		bl	HAL_GPIO_EXTI_Callback
ARM GAS  /tmp/ccY1Uct9.s 			page 29


 990              	.LVL77:
 473:Drivers/STM32F0xx_HAL_Driver/Src/stm32f0xx_hal_gpio.c **** 
 991              		.loc 1 473 1 is_stmt 0 view .LVU334
 992 0014 F9E7     		b	.L53
 993              	.L57:
 994 0016 C046     		.align	2
 995              	.L56:
 996 0018 00040140 		.word	1073808384
 997              		.cfi_endproc
 998              	.LFE46:
 1000              		.text
 1001              	.Letext0:
 1002              		.file 2 "/usr/lib/gcc/arm-none-eabi/13.2.1/include/stdint.h"
 1003              		.file 3 "Drivers/CMSIS/Device/ST/STM32F0xx/Include/stm32f030x8.h"
 1004              		.file 4 "Drivers/STM32F0xx_HAL_Driver/Inc/stm32f0xx_hal_def.h"
 1005              		.file 5 "Drivers/STM32F0xx_HAL_Driver/Inc/stm32f0xx_hal_gpio.h"
ARM GAS  /tmp/ccY1Uct9.s 			page 30

